 fx_example

 Timestamp is 5ecfa368 (Thu May 28 13:41:28 2020)

 Preferred load address is 0000000180000000

 Start         Length     Name                   Class
 0001:00000000 00033b80H .text$mn                CODE
 0001:00033b80 00000020H .text$mn$00             CODE
 0001:00033ba0 000002e0H .text$x                 CODE
 0002:00000000 00000218H .idata$5                DATA
 0002:00000218 00000028H .00cfg                  DATA
 0002:00000240 00000008H .CRT$XCA                DATA
 0002:00000248 00000008H .CRT$XCZ                DATA
 0002:00000250 00000008H .CRT$XIA                DATA
 0002:00000258 00000018H .CRT$XIC                DATA
 0002:00000270 00000008H .CRT$XIZ                DATA
 0002:00000278 00000008H .CRT$XPA                DATA
 0002:00000280 00000010H .CRT$XPX                DATA
 0002:00000290 00000008H .CRT$XPXA               DATA
 0002:00000298 00000008H .CRT$XPZ                DATA
 0002:000002a0 00000008H .CRT$XTA                DATA
 0002:000002a8 00000008H .CRT$XTZ                DATA
 0002:000002b0 00000000H .gfids$y                DATA
 0002:000002b0 0000ce60H .rdata                  DATA
 0002:0000d110 00000000H .rdata$r                DATA
 0002:0000d110 00000268H .rdata$zzzdbg           DATA
 0002:0000d378 00000008H .rtc$IAA                DATA
 0002:0000d380 00000008H .rtc$IZZ                DATA
 0002:0000d388 00000008H .rtc$TAA                DATA
 0002:0000d390 00000008H .rtc$TZZ                DATA
 0002:0000d398 00002808H .xdata                  DATA
 0002:0000fb98 00000000H .xdata$x                DATA
 0002:0000fba0 00000050H .edata                  DATA
 0002:0000fbf0 00000014H .idata$2                DATA
 0002:0000fc04 00000014H .idata$3                DATA
 0002:0000fc18 00000218H .idata$4                DATA
 0002:0000fe30 000004e2H .idata$6                DATA
 0003:00000000 00001dc0H .data                   DATA
 0003:00001dc0 00000000H .data$r                 DATA
 0003:00001dc0 000011b0H .bss                    DATA
 0004:00000000 00001e0cH .pdata                  DATA
 0005:00000000 00000094H _RDATA                  DATA

  Address         Publics by Value              Rva+Base               Lib:Object

 0000:00000000       __hybrid_code_map_count    0000000000000000     <absolute>
 0000:00000000       __hybrid_code_map          0000000000000000     <absolute>
 0000:00000000       __guard_iat_count          0000000000000000     <absolute>
 0000:00000000       __guard_eh_cont_count      0000000000000000     <absolute>
 0000:00000000       __guard_longjmp_count      0000000000000000     <absolute>
 0000:00000000       __volatile_metadata        0000000000000000     <absolute>
 0000:00000000       __guard_longjmp_table      0000000000000000     <absolute>
 0000:00000000       __guard_iat_table          0000000000000000     <absolute>
 0000:00000000       __guard_fids_count         0000000000000000     <absolute>
 0000:00000000       __guard_eh_cont_table      0000000000000000     <absolute>
 0000:00000000       ___safe_se_handler_count   0000000000000000     <absolute>
 0000:00000000       __enclave_config           0000000000000000     <absolute>
 0000:00000000       __dynamic_value_reloc_table 0000000000000000     <absolute>
 0000:00000000       __AbsoluteZero             0000000000000000     <absolute>
 0000:00000000       ___safe_se_handler_table   0000000000000000     <absolute>
 0000:00000000       __guard_fids_table         0000000000000000     <absolute>
 0000:00000000       __hybrid_auxiliary_iat     0000000000000000     <absolute>
 0000:00000100       __guard_flags              0000000000000100     <absolute>
 0000:00000000       __ImageBase                0000000180000000     <linker-defined>
 0001:000005b0       ringmod_init               00000001800015b0 f   ringmod.o
 0001:00000be0       ws_tanh_init               0000000180001be0 f   ws_tanh.o
 0001:00001370       ws_tanh_asym_init          0000000180002370 f   ws_tanh_asym.o
 0001:00001f60       bitcrusher_init            0000000180002f60 f   bitcrusher.o
 0001:000027b0       ws_exp_init                00000001800037b0 f   ws_exp.o
 0001:000034c0       ws_fm_init                 00000001800044c0 f   ws_fm.o
 0001:000040b0       resample_nearest_init      00000001800050b0 f   resample_nearest.o
 0001:00004f10       resample_linear_init       0000000180005f10 f   resample_linear.o
 0001:00005070       ?calcParams@StBiquadCoeff@@QEAAXHMMM@Z 0000000180006070 f   biquad.o
 0001:00005fb0       biquad_lpf_1_init          0000000180006fb0 f   biquad_lpf_1.o
 0001:00006120       ?calcParams@StBiquad@@QEAAXIHMMM@Z 0000000180007120 f i biquad_lpf_1.o
 0001:00006eb0       biquad_lpf_2_init          0000000180007eb0 f   biquad_lpf_2.o
 0001:00007f90       biquad_lpf_3_init          0000000180008f90 f   biquad_lpf_3.o
 0001:00008fc0       biquad_lpf_4_init          0000000180009fc0 f   biquad_lpf_4.o
 0001:00009970       biquad_hpf_1_init          000000018000a970 f   biquad_hpf_1.o
 0001:0000a790       biquad_hpf_2_init          000000018000b790 f   biquad_hpf_2.o
 0001:0000b870       biquad_hpf_3_init          000000018000c870 f   biquad_hpf_3.o
 0001:0000c8a0       biquad_hpf_4_init          000000018000d8a0 f   biquad_hpf_4.o
 0001:0000d250       biquad_bpf_1_init          000000018000e250 f   biquad_bpf_1.o
 0001:0000e280       biquad_bpf_2_init          000000018000f280 f   biquad_bpf_2.o
 0001:0000f2b0       biquad_bpf_3_init          00000001800102b0 f   biquad_bpf_3.o
 0001:000102e0       biquad_bpf_4_init          00000001800112e0 f   biquad_bpf_4.o
 0001:00010c50       biquad_brf_1_init          0000000180011c50 f   biquad_brf_1.o
 0001:00011a70       biquad_brf_2_init          0000000180012a70 f   biquad_brf_2.o
 0001:00012b50       biquad_brf_3_init          0000000180013b50 f   biquad_brf_3.o
 0001:00013b80       biquad_brf_4_init          0000000180014b80 f   biquad_brf_4.o
 0001:000145a0       biquad_peq_1_init          00000001800155a0 f   biquad_peq_1.o
 0001:00015440       biquad_peq_2_init          0000000180016440 f   biquad_peq_2.o
 0001:000165b0       biquad_peq_3_init          00000001800175b0 f   biquad_peq_3.o
 0001:00017650       biquad_peq_4_init          0000000180018650 f   biquad_peq_4.o
 0001:00018040       biquad_lsh_1_init          0000000180019040 f   biquad_lsh_1.o
 0001:00018ee0       biquad_lsh_2_init          0000000180019ee0 f   biquad_lsh_2.o
 0001:0001a050       biquad_lsh_3_init          000000018001b050 f   biquad_lsh_3.o
 0001:0001b0f0       biquad_lsh_4_init          000000018001c0f0 f   biquad_lsh_4.o
 0001:0001bae0       biquad_hsh_1_init          000000018001cae0 f   biquad_hsh_1.o
 0001:0001c980       biquad_hsh_2_init          000000018001d980 f   biquad_hsh_2.o
 0001:0001daf0       biquad_hsh_3_init          000000018001eaf0 f   biquad_hsh_3.o
 0001:0001eb90       biquad_hsh_4_init          000000018001fb90 f   biquad_hsh_4.o
 0001:0001f500       amp_init                   0000000180020500 f   amp.o
 0001:0001fd30       pan_init                   0000000180020d30 f   pan.o
 0001:00020980       ws_smoothstep_init         0000000180021980 f   ws_smoothstep.o
 0001:00021740       dly_1_init                 0000000180022740 f   dly_1.o
 0001:00022180       dly_2_init                 0000000180023180 f   dly_2.o
 0001:00022fc0       dly_flt_2_init             0000000180023fc0 f   dly_flt_2.o
 0001:00023130       ?calcFltCoeff@dly_flt_2_voice_s@@QEAAXAEAUStBiquadCoeff@@MMM@Z 0000000180024130 f i dly_flt_2.o
 0001:00024200       bitflipper_init            0000000180025200 f   bitflipper.o
 0001:00024360       st_plugin_init             0000000180025360 f   fx_example.o
 0001:00024824       _DllMainCRTStartup         0000000180025824 f   LIBCMT:dll_dllmain.obj
 0001:00024864       __security_init_cookie     0000000180025864 f   LIBCMT:gs_support.obj
 0001:00024910       DllMain                    0000000180025910 f   LIBCMT:dll_dllmain_stub.obj
 0001:00024910       _get_startup_argv_mode     0000000180025910 f   LIBCMT:argv_mode.obj
 0001:00024918       ?__scrt_initialize_type_info@@YAXXZ 0000000180025918 f   LIBCMT:tncleanup.obj
 0001:00024928       ?__scrt_uninitialize_type_info@@YAXXZ 0000000180025928 f   LIBCMT:tncleanup.obj
 0001:00024934       __local_stdio_printf_options 0000000180025934 f i LIBCMT:default_local_stdio_options.obj
 0001:0002493c       __local_stdio_scanf_options 000000018002593c f i LIBCMT:default_local_stdio_options.obj
 0001:00024944       __scrt_initialize_default_local_stdio_options 0000000180025944 f   LIBCMT:default_local_stdio_options.obj
 0001:00024960       __scrt_acquire_startup_lock 0000000180025960 f   LIBCMT:utility.obj
 0001:0002499c       __scrt_dllmain_after_initialize_c 000000018002599c f   LIBCMT:utility.obj
 0001:000249d0       __scrt_dllmain_before_initialize_c 00000001800259d0 f   LIBCMT:utility.obj
 0001:000249e8       __scrt_dllmain_crt_thread_attach 00000001800259e8 f   LIBCMT:utility.obj
 0001:00024a10       __scrt_dllmain_crt_thread_detach 0000000180025a10 f   LIBCMT:utility.obj
 0001:00024a28       __scrt_dllmain_exception_filter 0000000180025a28 f   LIBCMT:utility.obj
 0001:00024a88       __scrt_dllmain_uninitialize_c 0000000180025a88 f   LIBCMT:utility.obj
 0001:00024ab8       __scrt_dllmain_uninitialize_critical 0000000180025ab8 f   LIBCMT:utility.obj
 0001:00024acc       __scrt_initialize_crt      0000000180025acc f   LIBCMT:utility.obj
 0001:00024b18       __scrt_initialize_onexit_tables 0000000180025b18 f   LIBCMT:utility.obj
 0001:00024ba4       __scrt_is_nonwritable_in_current_image 0000000180025ba4 f   LIBCMT:utility.obj
 0001:00024c3c       __scrt_release_startup_lock 0000000180025c3c f   LIBCMT:utility.obj
 0001:00024c60       __scrt_uninitialize_crt    0000000180025c60 f   LIBCMT:utility.obj
 0001:00024c8c       __scrt_get_dyn_tls_init_callback 0000000180025c8c f   LIBCMT:dyn_tls_init.obj
 0001:00024c94       __crt_debugger_hook        0000000180025c94 f   LIBCMT:utility_desktop.obj
 0001:00024c9c       __scrt_fastfail            0000000180025c9c f   LIBCMT:utility_desktop.obj
 0001:00024de8       _RTC_Initialize            0000000180025de8 f   LIBCMT:initsect.obj
 0001:00024e24       _RTC_Terminate             0000000180025e24 f   LIBCMT:initsect.obj
 0001:00024e60       _guard_check_icall_nop     0000000180025e60 f i LIBCMT:guard_support.obj
 0001:00024e64       __isa_available_init       0000000180025e64 f   LIBCMT:cpu_disp.obj
 0001:00025008       __scrt_is_ucrt_dll_in_use  0000000180026008 f   LIBCMT:ucrt_detection.obj
 0001:00025020       IsProcessorFeaturePresent  0000000180026020 f   kernel32:KERNEL32.dll
 0001:00025040       memset_repmovs             0000000180026040 f   libvcruntime:memset.obj
 0001:00025060       memset                     0000000180026060 f   libvcruntime:memset.obj
 0001:000251f0       __C_specific_handler       00000001800261f0 f   libvcruntime:riscchandler.obj
 0001:000253fc       __std_type_info_destroy_list 00000001800263fc f   libvcruntime:std_type_info.obj
 0001:00025428       __vcrt_initialize          0000000180026428 f   libvcruntime:initialization.obj
 0001:00025450       __vcrt_thread_attach       0000000180026450 f   libvcruntime:initialization.obj
 0001:00025464       __vcrt_thread_detach       0000000180026464 f   libvcruntime:initialization.obj
 0001:00025478       __vcrt_uninitialize        0000000180026478 f   libvcruntime:initialization.obj
 0001:00025494       __vcrt_uninitialize_critical 0000000180026494 f   libvcruntime:initialization.obj
 0001:000254a4       __DestructExceptionObject  00000001800264a4 f   libvcruntime:ehhelpers.obj
 0001:00025514       ?_CallMemberFunction0@@YAXQEAX0@Z 0000000180026514 f i libvcruntime:ehhelpers.obj
 0001:00025530       _NLG_Notify                0000000180026530 f   libvcruntime:notify.obj
 0001:00025550       __NLG_Dispatch2            0000000180026550 f   libvcruntime:notify.obj
 0001:00025560       __NLG_Return2              0000000180026560 f   libvcruntime:notify.obj
 0001:00025564       __except_validate_context_record 0000000180026564 f   libvcruntime:jbcxrval.obj
 0001:0002559c       __vcrt_freefls             000000018002659c f   libvcruntime:per_thread_data.obj
 0001:000255bc       __vcrt_freeptd             00000001800265bc f   libvcruntime:per_thread_data.obj
 0001:0002560c       __vcrt_getptd              000000018002660c f   libvcruntime:per_thread_data.obj
 0001:00025628       __vcrt_getptd_noexit       0000000180026628 f   libvcruntime:per_thread_data.obj
 0001:000256e8       __vcrt_initialize_ptd      00000001800266e8 f   libvcruntime:per_thread_data.obj
 0001:00025730       __vcrt_uninitialize_ptd    0000000180026730 f   libvcruntime:per_thread_data.obj
 0001:00025754       __vcrt_initialize_locks    0000000180026754 f   libvcruntime:locks.obj
 0001:00025788       __vcrt_uninitialize_locks  0000000180026788 f   libvcruntime:locks.obj
 0001:000257d0       memcpy_repmovs             00000001800267d0 f   libvcruntime:memcpy.obj
 0001:000257f0       memcpy                     00000001800267f0 f   libvcruntime:memcpy.obj
 0001:000257f0       memmove                    00000001800267f0 f   libvcruntime:memcpy.obj
 0001:00025d14       __vcrt_FlsAlloc            0000000180026d14 f   libvcruntime:winapi_downlevel.obj
 0001:00025d5c       __vcrt_FlsFree             0000000180026d5c f   libvcruntime:winapi_downlevel.obj
 0001:00025da4       __vcrt_FlsGetValue         0000000180026da4 f   libvcruntime:winapi_downlevel.obj
 0001:00025dec       __vcrt_FlsSetValue         0000000180026dec f   libvcruntime:winapi_downlevel.obj
 0001:00025e40       __vcrt_InitializeCriticalSectionEx 0000000180026e40 f   libvcruntime:winapi_downlevel.obj
 0001:00025ec0       _CallSettingFrame          0000000180026ec0 f   libvcruntime:handlers.obj
 0001:00025f10       _CallSettingFrame_LookupContinuationIndex 0000000180026f10 f   libvcruntime:handlers.obj
 0001:00025f40       _CallSettingFrame_NotifyContinuationAddr 0000000180026f40 f   libvcruntime:handlers.obj
 0001:00025f70       _CallSettingFrameEncoded   0000000180026f70 f   libvcruntime:handlers.obj
 0001:00025fb8       free                       0000000180026fb8 f   libucrt:free.obj
 0001:00025fcc       malloc                     0000000180026fcc f   libucrt:malloc.obj
 0001:00025fe0       sinf                       0000000180026fe0 f   libucrt:sinf.obj
 0001:000266e0       powf                       00000001800276e0 f   libucrt:powf.obj
 0001:000275a8       tanhf                      00000001800285a8 f   libucrt:tanhf.obj
 0001:00027840       exp                        0000000180028840 f   libucrt:exp.obj
 0001:00027c40       sin                        0000000180028c40 f   libucrt:sin.obj
 0001:000281b0       cosf                       00000001800291b0 f   libucrt:cosf.obj
 0001:000286b0       sinh                       00000001800296b0 f   libucrt:sinh.obj
 0001:00028b90       pow                        0000000180029b90 f   libucrt:pow.obj
 0001:0002a224       sqrt                       000000018002b224 f   libucrt:sqrt.obj
 0001:0002a2f0       tan                        000000018002b2f0 f   libucrt:tan.obj
 0001:0002aa88       _initterm                  000000018002ba88 f   libucrt:initterm.obj
 0001:0002aaec       _initterm_e                000000018002baec f   libucrt:initterm.obj
 0001:0002ab2c       _seh_filter_dll            000000018002bb2c f   libucrt:exception_filter.obj
 0001:0002ab40       _seh_filter_exe            000000018002bb40 f   libucrt:exception_filter.obj
 0001:0002af4c       __acrt_initialize_thread_local_exit_callback 000000018002bf4c f   libucrt:exit.obj
 0001:0002af54       _cexit                     000000018002bf54 f   libucrt:exit.obj
 0001:0002af64       _exit                      000000018002bf64 f   libucrt:exit.obj
 0001:0002af70       _is_c_termination_complete 000000018002bf70 f   libucrt:exit.obj
 0001:0002b134       __acrt_allocate_buffer_for_argv 000000018002c134 f   libucrt:argv_parsing.obj
 0001:0002b194       _configure_narrow_argv     000000018002c194 f   libucrt:argv_parsing.obj
 0001:0002b510       __dcrt_uninitialize_environments_nolock 000000018002c510 f   libucrt:environment_initialization.obj
 0001:0002b548       _initialize_narrow_environment 000000018002c548 f   libucrt:environment_initialization.obj
 0001:0002b6d8       _execute_onexit_table      000000018002c6d8 f   libucrt:onexit.obj
 0001:0002b714       _initialize_onexit_table   000000018002c714 f   libucrt:onexit.obj
 0001:0002b78c       __acrt_uninitialize_command_line 000000018002c78c f   libucrt:argv_data.obj
 0001:0002b898       __acrt_initialize          000000018002c898 f   libucrt:initialization.obj
 0001:0002b8ac       __acrt_thread_attach       000000018002c8ac f   libucrt:initialization.obj
 0001:0002b8c0       __acrt_thread_detach       000000018002c8c0 f   libucrt:initialization.obj
 0001:0002b8d0       __acrt_uninitialize        000000018002c8d0 f   libucrt:initialization.obj
 0001:0002b908       __acrt_uninitialize_critical 000000018002c908 f   libucrt:initialization.obj
 0001:0002b918       terminate                  000000018002c918 f   libucrt:terminate.obj
 0001:0002b938       strcpy_s                   000000018002c938 f   libucrt:strcpy_s.obj
 0001:0002b998       abort                      000000018002c998 f   libucrt:abort.obj
 0001:0002b9f0       ??0_LocaleUpdate@@QEAA@QEAU__crt_locale_pointers@@@Z 000000018002c9f0 f i libucrt:output.obj
 0001:0002ba90       strncmp                    000000018002ca90 f   libucrt:strncmp.obj
 0001:0002bb10       calloc                     000000018002cb10 f   libucrt:calloc.obj
 0001:0002bb18       wcsncmp                    000000018002cb18 f   libucrt:wcsncmp.obj
 0001:0002bb44       _free_base                 000000018002cb44 f   libucrt:free_base.obj
 0001:0002bb84       _malloc_base               000000018002cb84 f   libucrt:malloc_base.obj
 0001:0002bbf0       __acrt_initialize_fma3     000000018002cbf0 f   libucrt:fma3_available.obj
 0001:0002bc60       __remainder_piby2d2f_forC  000000018002cc60 f   libucrt:remainder_piby2f_forc.obj
 0001:0002bdec       _cosf_special              000000018002cdec f   libucrt:sincos_special.obj
 0001:0002be00       _sin_special               000000018002ce00 f   libucrt:sincos_special.obj
 0001:0002bf44       _sinf_special              000000018002cf44 f   libucrt:sincos_special.obj
 0001:0002bf58       _tan_special               000000018002cf58 f   libucrt:sincos_special.obj
 0001:0002bf70       _pow_special               000000018002cf70 f   libucrt:pow_special.obj
 0001:0002c094       _powf_special              000000018002d094 f   libucrt:pow_special.obj
 0001:0002c220       _clrfp                     000000018002d220 f   libucrt:fpctrl.obj
 0001:0002c240       _ctrlfp                    000000018002d240 f   libucrt:fpctrl.obj
 0001:0002c2bc       _set_statfp                000000018002d2bc f   libucrt:fpctrl.obj
 0001:0002c2dc       _statfp                    000000018002d2dc f   libucrt:fpctrl.obj
 0001:0002c414       _handle_error              000000018002d414 f   libucrt:libm_error.obj
 0001:0002c53c       _handle_errorf             000000018002d53c f   libucrt:libm_error.obj
 0001:0002c670       _handle_nan                000000018002d670 f   libucrt:libm_error.obj
 0001:0002c68c       _handle_nanf               000000018002d68c f   libucrt:libm_error.obj
 0001:0002c6a0       _exp_special               000000018002d6a0 f   libucrt:exp_special.obj
 0001:0002c740       __remainder_piby2_forAsm   000000018002d740 f   libucrt:remainder_piby2_forasm.obj
 0001:0002c950       __remainder_piby2_cw_forAsm 000000018002d950 f   libucrt:remainder_piby2_forasm.obj
 0001:0002ca90       __remainder_piby2_fma3     000000018002da90 f   libucrt:remainder_piby2_forfma3.obj
 0001:0002cc80       __remainder_piby2_fma3_bdl 000000018002dc80 f   libucrt:remainder_piby2_forfma3.obj
 0001:0002cd00       __remainder_piby2d2f_forAsm 000000018002dd00 f   libucrt:remainder_piby2f_forasm.obj
 0001:0002d1c8       __acrt_freeptd             000000018002e1c8 f   libucrt:per_thread_data.obj
 0001:0002d20c       __acrt_getptd              000000018002e20c f   libucrt:per_thread_data.obj
 0001:0002d2d8       __acrt_getptd_head         000000018002e2d8 f   libucrt:per_thread_data.obj
 0001:0002d380       __acrt_getptd_noexit       000000018002e380 f   libucrt:per_thread_data.obj
 0001:0002d450       __acrt_initialize_ptd      000000018002e450 f   libucrt:per_thread_data.obj
 0001:0002d48c       __acrt_uninitialize_ptd    000000018002e48c f   libucrt:per_thread_data.obj
 0001:0002d4b0       __acrt_initialize_locks    000000018002e4b0 f   libucrt:locks.obj
 0001:0002d4f8       __acrt_lock                000000018002e4f8 f   libucrt:locks.obj
 0001:0002d514       __acrt_uninitialize_locks  000000018002e514 f   libucrt:locks.obj
 0001:0002d54c       __acrt_unlock              000000018002e54c f   libucrt:locks.obj
 0001:0002d568       __acrt_get_process_end_policy 000000018002e568 f   libucrt:win_policies.obj
 0001:0002d5a4       __acrt_call_reportfault    000000018002e5a4 f   libucrt:invalid_parameter.obj
 0001:0002d700       __acrt_initialize_invalid_parameter_handler 000000018002e700 f   libucrt:invalid_parameter.obj
 0001:0002d708       _invalid_parameter         000000018002e708 f   libucrt:invalid_parameter.obj
 0001:0002d7b8       _invalid_parameter_noinfo  000000018002e7b8 f   libucrt:invalid_parameter.obj
 0001:0002d7d8       _invoke_watson             000000018002e7d8 f   libucrt:invalid_parameter.obj
 0001:0002d820       __acrt_errno_from_os_error 000000018002e820 f   libucrt:errno.obj
 0001:0002d868       __acrt_errno_map_os_error  000000018002e868 f   libucrt:errno.obj
 0001:0002d8b8       __doserrno                 000000018002e8b8 f   libucrt:errno.obj
 0001:0002d8d8       _errno                     000000018002e8d8 f   libucrt:errno.obj
 0001:0002d8f8       _calloc_base               000000018002e8f8 f   libucrt:calloc_base.obj
 0001:0002ded4       __acrt_expand_narrow_argv_wildcards 000000018002eed4 f   libucrt:argv_wildcards.obj
 0001:0002e61c       __acrt_initialize_multibyte 000000018002f61c f   libucrt:mbctype.obj
 0001:0002e67c       __acrt_update_thread_multibyte_data 000000018002f67c f   libucrt:mbctype.obj
 0001:0002e698       _setmbcp_nolock            000000018002f698 f   libucrt:mbctype.obj
 0001:0002e9d0       _ismbblead                 000000018002f9d0 f   libucrt:ismbbyte.obj
 0001:0002e9e4       __acrt_initialize_command_line 000000018002f9e4 f   libucrt:argv_data.obj
 0001:0002ea0c       __dcrt_get_narrow_environment_from_os 000000018002fa0c f   libucrt:get_environment_from_os.obj
 0001:0002eb10       _recalloc                  000000018002fb10 f   libucrt:recalloc.obj
 0001:0002eb18       _recalloc_base             000000018002fb18 f   libucrt:recalloc.obj
 0001:0002ed88       __acrt_AppPolicyGetProcessTerminationMethodInternal 000000018002fd88 f   libucrt:winapi_thunks.obj
 0001:0002edd8       __acrt_FlsAlloc            000000018002fdd8 f   libucrt:winapi_thunks.obj
 0001:0002ee20       __acrt_FlsFree             000000018002fe20 f   libucrt:winapi_thunks.obj
 0001:0002ee68       __acrt_FlsGetValue         000000018002fe68 f   libucrt:winapi_thunks.obj
 0001:0002eeb0       __acrt_FlsSetValue         000000018002feb0 f   libucrt:winapi_thunks.obj
 0001:0002ef04       __acrt_InitializeCriticalSectionEx 000000018002ff04 f   libucrt:winapi_thunks.obj
 0001:0002ef68       __acrt_LCMapStringEx       000000018002ff68 f   libucrt:winapi_thunks.obj
 0001:0002f044       __acrt_LocaleNameToLCID    0000000180030044 f   libucrt:winapi_thunks.obj
 0001:0002f094       __acrt_initialize_winapi_thunks 0000000180030094 f   libucrt:winapi_thunks.obj
 0001:0002f0dc       __acrt_uninitialize_winapi_thunks 00000001800300dc f   libucrt:winapi_thunks.obj
 0001:0002f120       __acrt_initialize_heap     0000000180030120 f   libucrt:heap_handle.obj
 0001:0002f13c       __acrt_uninitialize_heap   000000018003013c f   libucrt:heap_handle.obj
 0001:0002f330       __acrt_initialize_lowio    0000000180030330 f   libucrt:ioinit.obj
 0001:0002f36c       __acrt_uninitialize_lowio  000000018003036c f   libucrt:ioinit.obj
 0001:0002f3ac       __acrt_execute_initializers 00000001800303ac f   libucrt:shared_initialization.obj
 0001:0002f42c       __acrt_execute_uninitializers 000000018003042c f   libucrt:shared_initialization.obj
 0001:0002f468       __acrt_initialize_new_handler 0000000180030468 f   libucrt:new_handler.obj
 0001:0002f470       _callnewh                  0000000180030470 f   libucrt:new_handler.obj
 0001:0002f4a0       _query_new_handler         00000001800304a0 f   libucrt:new_handler.obj
 0001:0002f51c       __acrt_get_sigabrt_handler 000000018003051c f   libucrt:signal.obj
 0001:0002f54c       __acrt_initialize_signal_handlers 000000018003054c f   libucrt:signal.obj
 0001:0002f56c       raise                      000000018003056c f   libucrt:signal.obj
 0001:0002f7e0       __acrt_has_user_matherr    00000001800307e0 f   libucrt:matherr.obj
 0001:0002f800       __acrt_initialize_user_matherr 0000000180030800 f   libucrt:matherr.obj
 0001:0002f808       __acrt_invoke_user_matherr 0000000180030808 f   libucrt:matherr.obj
 0001:0002fa1c       __acrt_stdio_flush_nolock  0000000180030a1c f   libucrt:fflush.obj
 0001:0002fa98       _fflush_nolock             0000000180030a98 f   libucrt:fflush.obj
 0001:0002fae4       _flushall                  0000000180030ae4 f   libucrt:fflush.obj
 0001:0002faec       __acrt_initialize_stdio    0000000180030aec f   libucrt:_file.obj
 0001:0002fc0c       __acrt_uninitialize_stdio  0000000180030c0c f   libucrt:_file.obj
 0001:0002fc68       _lock_file                 0000000180030c68 f   libucrt:_file.obj
 0001:0002fc74       _unlock_file               0000000180030c74 f   libucrt:_file.obj
 0001:0002fc80       _mbtowc_l                  0000000180030c80 f   libucrt:mbtowc.obj
 0001:0002fdc8       mbtowc                     0000000180030dc8 f   libucrt:mbtowc.obj
 0001:0002fdd0       __acrt_update_locale_info  0000000180030dd0 f   libucrt:locale_update.obj
 0001:0002fe04       __acrt_update_multibyte_info 0000000180030e04 f   libucrt:locale_update.obj
 0001:0002fe38       _fileno                    0000000180030e38 f   libucrt:fileno.obj
 0001:0002fed0       __acrt_set_locale_changed  0000000180030ed0 f   libucrt:wsetlocale.obj
 0001:0002fedc       __acrt_uninitialize_locale 0000000180030edc f   libucrt:wsetlocale.obj
 0001:0002ff0c       __pctype_func              0000000180030f0c f   libucrt:ctype.obj
 0001:0002ff3c       _query_new_mode            0000000180030f3c f   libucrt:new_mode.obj
 0001:0002ff60       _get_fpsr                  0000000180030f60 f   libucrt:fpsr.obj
 0001:0002ff70       _set_fpsr                  0000000180030f70 f   libucrt:fpsr.obj
 0001:0002ff7a       _fclrf                     0000000180030f7a f   libucrt:fpsr.obj
 0001:0002ff8e       _frnd                      0000000180030f8e f   libucrt:fpsr.obj
 0001:0002ffb0       _raise_exc                 0000000180030fb0 f   libucrt:fpexcept.obj
 0001:0002ffd8       _raise_exc_ex              0000000180030fd8 f   libucrt:fpexcept.obj
 0001:000302e0       _raise_excf                00000001800312e0 f   libucrt:fpexcept.obj
 0001:0003030c       _set_errno_from_matherr    000000018003130c f   libucrt:fpexcept.obj
 0001:0003033c       __acrt_add_locale_ref      000000018003133c f   libucrt:locale_refcounting.obj
 0001:000303c8       __acrt_free_locale         00000001800313c8 f   libucrt:locale_refcounting.obj
 0001:00030540       __acrt_locale_add_lc_time_reference 0000000180031540 f   libucrt:locale_refcounting.obj
 0001:00030568       __acrt_locale_free_lc_time_if_unreferenced 0000000180031568 f   libucrt:locale_refcounting.obj
 0001:000305a0       __acrt_locale_release_lc_time_reference 00000001800315a0 f   libucrt:locale_refcounting.obj
 0001:000305c8       __acrt_release_locale_ref  00000001800315c8 f   libucrt:locale_refcounting.obj
 0001:00030670       __acrt_update_thread_locale_data 0000000180031670 f   libucrt:locale_refcounting.obj
 0001:000306e0       _updatetlocinfoEx_nolock   00000001800316e0 f   libucrt:locale_refcounting.obj
 0001:00030750       qsort                      0000000180031750 f   libucrt:qsort.obj
 0001:00030b00       strncpy_s                  0000000180031b00 f   libucrt:strncpy_s.obj
 0001:00030c80       strpbrk                    0000000180031c80 f   libucrt:strpbrk.obj
 0001:00031060       _mbsdec                    0000000180032060 f   libucrt:mbsdec.obj
 0001:00031068       _mbsdec_l                  0000000180032068 f   libucrt:mbsdec.obj
 0001:000310f8       __acrt_GetStringTypeA      00000001800320f8 f   libucrt:getstringtypea.obj
 0001:000315a0       __acrt_LCMapStringA        00000001800325a0 f   libucrt:lcmapstringa.obj
 0001:00031650       _msize                     0000000180032650 f   libucrt:msize.obj
 0001:00031658       _msize_base                0000000180032658 f   libucrt:msize.obj
 0001:00031694       _realloc_base              0000000180032694 f   libucrt:realloc_base.obj
 0001:000317dc       __acrt_DownlevelLocaleNameToLCID 00000001800327dc f   libucrt:lcidtoname_downlevel.obj
 0001:00031810       __acrt_lowio_create_handle_array 0000000180032810 f   libucrt:osfinfo.obj
 0001:000318a8       __acrt_lowio_destroy_handle_array 00000001800328a8 f   libucrt:osfinfo.obj
 0001:000318f8       __acrt_lowio_ensure_fh_exists 00000001800328f8 f   libucrt:osfinfo.obj
 0001:000319a0       __acrt_lowio_lock_fh       00000001800329a0 f   libucrt:osfinfo.obj
 0001:000319c4       __acrt_lowio_unlock_fh     00000001800329c4 f   libucrt:osfinfo.obj
 0001:000319e8       _free_osfhnd               00000001800329e8 f   libucrt:osfinfo.obj
 0001:00031aa4       _get_osfhandle             0000000180032aa4 f   libucrt:osfinfo.obj
 0001:00031ba8       _commit                    0000000180032ba8 f   libucrt:commit.obj
 0001:000321f4       _write                     00000001800331f4 f   libucrt:write.obj
 0001:000322e0       _write_nolock              00000001800332e0 f   libucrt:write.obj
 0001:00032624       _fcloseall                 0000000180033624 f   libucrt:closeall.obj
 0001:000326d8       __acrt_stdio_free_buffer_nolock 00000001800336d8 f   libucrt:_freebuf.obj
 0001:00032718       _isatty                    0000000180033718 f   libucrt:isatty.obj
 0001:00032778       _isleadbyte_l              0000000180033778 f i libucrt:_wctype.obj
 0001:000327b8       __acrt_MultiByteToWideChar 00000001800337b8 f   libucrt:multibytetowidechar.obj
 0001:000327c0       __acrt_locale_free_monetary 00000001800337c0 f   libucrt:initmon.obj
 0001:000328cc       __acrt_locale_free_numeric 00000001800338cc f   libucrt:initnum.obj
 0001:0003298c       __acrt_locale_free_time    000000018003398c f   libucrt:inittime.obj
 0001:00032a94       __strncnt                  0000000180033a94 f   libucrt:strncnt.obj
 0001:00032aac       _query_app_type            0000000180033aac f   libucrt:report_runtime_error.obj
 0001:00032b50       _lseeki64_nolock           0000000180033b50 f   libucrt:lseek.obj
 0001:00032b58       _putwch_nolock             0000000180033b58 f   libucrt:putwch.obj
 0001:00032b94       _fclose_nolock             0000000180033b94 f   libucrt:fclose.obj
 0001:00032c18       fclose                     0000000180033c18 f   libucrt:fclose.obj
 0001:00032c80       log10                      0000000180033c80 f   libucrt:log10.obj
 0001:0003322c       __dcrt_lowio_ensure_console_output_initialized 000000018003422c f   libucrt:initcon.obj
 0001:00033280       __dcrt_terminate_console_output 0000000180034280 f   libucrt:initcon.obj
 0001:0003329c       __dcrt_write_console_w     000000018003429c f   libucrt:initcon.obj
 0001:000333d0       _close                     00000001800343d0 f   libucrt:close.obj
 0001:00033474       _close_nolock              0000000180034474 f   libucrt:close.obj
 0001:00033530       ?__acrt_stdio_free_stream@@YAXV__crt_stdio_stream@@@Z 0000000180034530 f   libucrt:stream.obj
 0001:00033550       _log10_special             0000000180034550 f   libucrt:log_special.obj
 0001:00033610       _FindPESection             0000000180034610 f   LIBCMT:pesect.obj
 0001:00033660       _IsNonwritableInCurrentImage 0000000180034660 f   LIBCMT:pesect.obj
 0001:000336b0       _ValidateImageBase         00000001800346b0 f   LIBCMT:pesect.obj
 0001:000336e0       __GSHandlerCheck           00000001800346e0 f   LIBCMT:gshandler.obj
 0001:00033700       __GSHandlerCheckCommon     0000000180034700 f   LIBCMT:gshandler.obj
 0001:00033770       __security_check_cookie    0000000180034770 f   LIBCMT:amdsecgs.obj
 0001:00033794       __raise_securityfailure    0000000180034794 f   LIBCMT:gs_report.obj
 0001:000337c8       __report_gsfailure         00000001800347c8 f   LIBCMT:gs_report.obj
 0001:0003389c       __report_rangecheckfailure 000000018003489c f   LIBCMT:gs_report.obj
 0001:000338b0       __report_securityfailure   00000001800348b0 f   LIBCMT:gs_report.obj
 0001:00033a40       __chkstk                   0000000180034a40 f   LIBCMT:chkstk.obj
 0001:00033a40       _alloca_probe              0000000180034a40 f   LIBCMT:chkstk.obj
 0001:00033ab0       memcmp                     0000000180034ab0 f   libvcruntime:memcmp.obj
 0001:00033b90       _guard_dispatch_icall_nop  0000000180034b90 f   LIBCMT:guard_dispatch.obj
 0002:00000000       __imp_QueryPerformanceCounter 0000000180035000     kernel32:KERNEL32.dll
 0002:00000008       __imp_GetCurrentProcessId  0000000180035008     kernel32:KERNEL32.dll
 0002:00000010       __imp_GetCurrentThreadId   0000000180035010     kernel32:KERNEL32.dll
 0002:00000018       __imp_GetSystemTimeAsFileTime 0000000180035018     kernel32:KERNEL32.dll
 0002:00000020       __imp_InitializeSListHead  0000000180035020     kernel32:KERNEL32.dll
 0002:00000028       __imp_RtlCaptureContext    0000000180035028     kernel32:KERNEL32.dll
 0002:00000030       __imp_RtlLookupFunctionEntry 0000000180035030     kernel32:KERNEL32.dll
 0002:00000038       __imp_RtlVirtualUnwind     0000000180035038     kernel32:KERNEL32.dll
 0002:00000040       __imp_IsDebuggerPresent    0000000180035040     kernel32:KERNEL32.dll
 0002:00000048       __imp_UnhandledExceptionFilter 0000000180035048     kernel32:KERNEL32.dll
 0002:00000050       __imp_SetUnhandledExceptionFilter 0000000180035050     kernel32:KERNEL32.dll
 0002:00000058       __imp_GetStartupInfoW      0000000180035058     kernel32:KERNEL32.dll
 0002:00000060       __imp_IsProcessorFeaturePresent 0000000180035060     kernel32:KERNEL32.dll
 0002:00000068       __imp_GetModuleHandleW     0000000180035068     kernel32:KERNEL32.dll
 0002:00000070       __imp_WriteConsoleW        0000000180035070     kernel32:KERNEL32.dll
 0002:00000078       __imp_RtlUnwindEx          0000000180035078     kernel32:KERNEL32.dll
 0002:00000080       __imp_InterlockedFlushSList 0000000180035080     kernel32:KERNEL32.dll
 0002:00000088       __imp_GetLastError         0000000180035088     kernel32:KERNEL32.dll
 0002:00000090       __imp_SetLastError         0000000180035090     kernel32:KERNEL32.dll
 0002:00000098       __imp_EnterCriticalSection 0000000180035098     kernel32:KERNEL32.dll
 0002:000000a0       __imp_LeaveCriticalSection 00000001800350a0     kernel32:KERNEL32.dll
 0002:000000a8       __imp_DeleteCriticalSection 00000001800350a8     kernel32:KERNEL32.dll
 0002:000000b0       __imp_InitializeCriticalSectionAndSpinCount 00000001800350b0     kernel32:KERNEL32.dll
 0002:000000b8       __imp_TlsAlloc             00000001800350b8     kernel32:KERNEL32.dll
 0002:000000c0       __imp_TlsGetValue          00000001800350c0     kernel32:KERNEL32.dll
 0002:000000c8       __imp_TlsSetValue          00000001800350c8     kernel32:KERNEL32.dll
 0002:000000d0       __imp_TlsFree              00000001800350d0     kernel32:KERNEL32.dll
 0002:000000d8       __imp_FreeLibrary          00000001800350d8     kernel32:KERNEL32.dll
 0002:000000e0       __imp_GetProcAddress       00000001800350e0     kernel32:KERNEL32.dll
 0002:000000e8       __imp_LoadLibraryExW       00000001800350e8     kernel32:KERNEL32.dll
 0002:000000f0       __imp_RaiseException       00000001800350f0     kernel32:KERNEL32.dll
 0002:000000f8       __imp_GetCurrentProcess    00000001800350f8     kernel32:KERNEL32.dll
 0002:00000100       __imp_ExitProcess          0000000180035100     kernel32:KERNEL32.dll
 0002:00000108       __imp_TerminateProcess     0000000180035108     kernel32:KERNEL32.dll
 0002:00000110       __imp_GetModuleHandleExW   0000000180035110     kernel32:KERNEL32.dll
 0002:00000118       __imp_GetModuleFileNameA   0000000180035118     kernel32:KERNEL32.dll
 0002:00000120       __imp_MultiByteToWideChar  0000000180035120     kernel32:KERNEL32.dll
 0002:00000128       __imp_WideCharToMultiByte  0000000180035128     kernel32:KERNEL32.dll
 0002:00000130       __imp_HeapFree             0000000180035130     kernel32:KERNEL32.dll
 0002:00000138       __imp_HeapAlloc            0000000180035138     kernel32:KERNEL32.dll
 0002:00000140       __imp_FindClose            0000000180035140     kernel32:KERNEL32.dll
 0002:00000148       __imp_FindFirstFileExA     0000000180035148     kernel32:KERNEL32.dll
 0002:00000150       __imp_FindNextFileA        0000000180035150     kernel32:KERNEL32.dll
 0002:00000158       __imp_IsValidCodePage      0000000180035158     kernel32:KERNEL32.dll
 0002:00000160       __imp_GetACP               0000000180035160     kernel32:KERNEL32.dll
 0002:00000168       __imp_GetOEMCP             0000000180035168     kernel32:KERNEL32.dll
 0002:00000170       __imp_GetCPInfo            0000000180035170     kernel32:KERNEL32.dll
 0002:00000178       __imp_GetCommandLineA      0000000180035178     kernel32:KERNEL32.dll
 0002:00000180       __imp_GetCommandLineW      0000000180035180     kernel32:KERNEL32.dll
 0002:00000188       __imp_GetEnvironmentStringsW 0000000180035188     kernel32:KERNEL32.dll
 0002:00000190       __imp_FreeEnvironmentStringsW 0000000180035190     kernel32:KERNEL32.dll
 0002:00000198       __imp_LCMapStringW         0000000180035198     kernel32:KERNEL32.dll
 0002:000001a0       __imp_GetProcessHeap       00000001800351a0     kernel32:KERNEL32.dll
 0002:000001a8       __imp_GetStdHandle         00000001800351a8     kernel32:KERNEL32.dll
 0002:000001b0       __imp_GetFileType          00000001800351b0     kernel32:KERNEL32.dll
 0002:000001b8       __imp_GetStringTypeW       00000001800351b8     kernel32:KERNEL32.dll
 0002:000001c0       __imp_HeapSize             00000001800351c0     kernel32:KERNEL32.dll
 0002:000001c8       __imp_HeapReAlloc          00000001800351c8     kernel32:KERNEL32.dll
 0002:000001d0       __imp_SetStdHandle         00000001800351d0     kernel32:KERNEL32.dll
 0002:000001d8       __imp_FlushFileBuffers     00000001800351d8     kernel32:KERNEL32.dll
 0002:000001e0       __imp_WriteFile            00000001800351e0     kernel32:KERNEL32.dll
 0002:000001e8       __imp_GetConsoleCP         00000001800351e8     kernel32:KERNEL32.dll
 0002:000001f0       __imp_GetConsoleMode       00000001800351f0     kernel32:KERNEL32.dll
 0002:000001f8       __imp_SetFilePointerEx     00000001800351f8     kernel32:KERNEL32.dll
 0002:00000200       __imp_CreateFileW          0000000180035200     kernel32:KERNEL32.dll
 0002:00000208       __imp_CloseHandle          0000000180035208     kernel32:KERNEL32.dll
 0002:00000210       \177KERNEL32_NULL_THUNK_DATA 0000000180035210     kernel32:KERNEL32.dll
 0002:00000218       __guard_check_icall_fptr   0000000180035218     LIBCMT:guard_support.obj
 0002:00000220       __guard_xfg_check_icall_fptr 0000000180035220     LIBCMT:guard_support.obj
 0002:00000228       __guard_dispatch_icall_fptr 0000000180035228     LIBCMT:guard_support.obj
 0002:00000230       __guard_xfg_dispatch_icall_fptr 0000000180035230     LIBCMT:guard_support.obj
 0002:00000238       __guard_xfg_table_dispatch_icall_fptr 0000000180035238     LIBCMT:guard_support.obj
 0002:00000240       __xc_a                     0000000180035240     LIBCMT:initializers.obj
 0002:00000248       __xc_z                     0000000180035248     LIBCMT:initializers.obj
 0002:00000250       __xi_a                     0000000180035250     LIBCMT:initializers.obj
 0002:00000258       __acrt_tran_fma3_initializer 0000000180035258     libucrt:fma3_initializer.obj
 0002:00000260       __acrt_multibyte_initializer 0000000180035260     libucrt:multibyte_initializer.obj
 0002:00000268       __acrt_stdio_initializer   0000000180035268     libucrt:stdio_initializer.obj
 0002:00000270       __xi_z                     0000000180035270     LIBCMT:initializers.obj
 0002:00000278       __xp_a                     0000000180035278     LIBCMT:initializers.obj
 0002:00000280       __acrt_locale_terminator   0000000180035280     libucrt:locale_initializer.obj
 0002:00000288       __dcrt_console_output_terminator 0000000180035288     libucrt:console_output_initializer.obj
 0002:00000290       __acrt_stdio_terminator    0000000180035290     libucrt:stdio_initializer.obj
 0002:00000298       __xp_z                     0000000180035298     LIBCMT:initializers.obj
 0002:000002a0       __xt_a                     00000001800352a0     LIBCMT:initializers.obj
 0002:000002a8       __xt_z                     00000001800352a8     LIBCMT:initializers.obj
 0002:000002b0       __real@3e2aaaab            00000001800352b0     ringmod.o
 0002:000002b4       __real@3e800000            00000001800352b4     ringmod.o
 0002:000002b8       __real@3f000000            00000001800352b8     ringmod.o
 0002:000002bc       __real@3f400000            00000001800352bc     ringmod.o
 0002:000002c0       __real@3f800000            00000001800352c0     ringmod.o
 0002:000002c4       __real@40c90fdb            00000001800352c4     ringmod.o
 0002:000002c8       __real@41200000            00000001800352c8     ringmod.o
 0002:000002cc       __real@469c4000            00000001800352cc     ringmod.o
 0002:000002d0       __real@bf800000            00000001800352d0     ringmod.o
 0002:000002d4       __real@40800000            00000001800352d4     bitcrusher.o
 0002:000002d8       __real@bf7fffff            00000001800352d8     bitcrusher.o
 0002:000002e0       __real@3ff4000000000000    00000001800352e0     ws_exp.o
 0002:000002e8       __real@4010000000000000    00000001800352e8     ws_exp.o
 0002:000002f0       __real@c010000000000000    00000001800352f0     ws_exp.o
 0002:000002f8       __real@3a24b5be            00000001800352f8     ws_fm.o
 0002:00000300       __real@3f4eaec62ec97648    0000000180035300     ws_fm.o
 0002:00000308       __real@3f7ff972            0000000180035308     ws_fm.o
 0002:0000030c       __real@3fc90fdb            000000018003530c     ws_fm.o
 0002:00000310       __real@41000000            0000000180035310     ws_fm.o
 0002:00000314       __real@44fa0000            0000000180035314     ws_fm.o
 0002:00000318       __real@c0000000            0000000180035318     ws_fm.o
 0002:00000320       __xmm@80000000800000008000000080000000 0000000180035320     ws_fm.o
 0002:00000330       __real@40000000            0000000180035330     resample_nearest.o
 0002:00000334       __real@47800000            0000000180035334     resample_nearest.o
 0002:00000338       __real@477fff00            0000000180035338     resample_linear.o
 0002:0000033c       __real@3a83126f            000000018003533c     biquad.o
 0002:00000340       __real@3fc00000            0000000180035340     biquad.o
 0002:00000348       __real@3ff0000000000000    0000000180035348     biquad.o
 0002:00000350       __real@4000000000000000    0000000180035350     biquad.o
 0002:00000358       __real@400921fb54442d18    0000000180035358     biquad.o
 0002:00000360       __real@4024000000000000    0000000180035360     biquad.o
 0002:00000368       __real@4034000000000000    0000000180035368     biquad.o
 0002:00000370       __real@c000000000000000    0000000180035370     biquad.o
 0002:00000380       __xmm@7fffffffffffffff7fffffffffffffff 0000000180035380     biquad.o
 0002:00000390       __xmm@80000000000000008000000000000000 0000000180035390     biquad.o
 0002:00000420       __real@40e00000            0000000180035420     biquad_lpf_1.o
 0002:00000424       __real@42fe0000            0000000180035424     biquad_lpf_1.o
 0002:00000c30       __real@3f7d70a4            0000000180035c30     biquad_peq_1.o
 0002:00000c34       __real@41400000            0000000180035c34     biquad_peq_1.o
 0002:00000c38       __real@42b40000            0000000180035c38     biquad_peq_1.o
 0002:00001214       __real@40400000            0000000180036214     ws_smoothstep.o
 0002:000012a8       __real@43b9c278            00000001800362a8     dly_1.o
 0002:000012ac       __real@447a0000            00000001800362ac     dly_1.o
 0002:000012b0       __real@46fffe00            00000001800362b0     dly_1.o
 0002:00001454       __real@3bf5c28f            0000000180036454     dly_flt_2.o
 0002:000014cc       __real@41b80000            00000001800364cc     bitflipper.o
 0002:000014d0       _pRawDllMain               00000001800364d0     LIBCMT:dll_dllmain.obj
 0002:000014d0       _pDefaultRawDllMain        00000001800364d0     LIBCMT:dll_dllmain.obj
 0002:000014e0       __xmm@ffffffffffffffffffffffffffffffff 00000001800364e0     LIBCMT:utility.obj
 0002:000014f0       _pDestructExceptionObject  00000001800364f0     libvcruntime:ehhelpers.obj
 0002:00001c00       ??_C@_08EHJDFFNH@__based?$CI@ 0000000180036c00     libvcruntime:undname.obj
 0002:00001c10       ??_C@_07KOLFKCDI@__cdecl@  0000000180036c10     libvcruntime:undname.obj
 0002:00001c18       ??_C@_08GHMPAG@__pascal@   0000000180036c18     libvcruntime:undname.obj
 0002:00001c28       ??_C@_09IFJBGAPI@__stdcall@ 0000000180036c28     libvcruntime:undname.obj
 0002:00001c38       ??_C@_0L@NPHFGOKO@__thiscall@ 0000000180036c38     libvcruntime:undname.obj
 0002:00001c48       ??_C@_0L@JMKHOMEK@__fastcall@ 0000000180036c48     libvcruntime:undname.obj
 0002:00001c58       ??_C@_0N@BCKKPABJ@__vectorcall@ 0000000180036c58     libvcruntime:undname.obj
 0002:00001c68       ??_C@_09HIJEGCPM@__clrcall@ 0000000180036c68     libvcruntime:undname.obj
 0002:00001c74       ??_C@_06GHPCKEAG@__eabi@   0000000180036c74     libvcruntime:undname.obj
 0002:00001c80       ??_C@_09IOPIDJLG@__swift_1@ 0000000180036c80     libvcruntime:undname.obj
 0002:00001c90       ??_C@_09KFNFGKHF@__swift_2@ 0000000180036c90     libvcruntime:undname.obj
 0002:00001ca0       ??_C@_07JOMMBBKO@__ptr64@  0000000180036ca0     libvcruntime:undname.obj
 0002:00001ca8       ??_C@_0L@PILCLIHE@__restrict@ 0000000180036ca8     libvcruntime:undname.obj
 0002:00001cb8       ??_C@_0M@GFIIJFMG@__unaligned@ 0000000180036cb8     libvcruntime:undname.obj
 0002:00001cc8       ??_C@_09DHDLOLLB@restrict?$CI@ 0000000180036cc8     libvcruntime:undname.obj
 0002:00001cd2       ??_C@_00CNPNBAHC@@         0000000180036cd2     libvcruntime:undname.obj
 0002:00001cd4       ??_C@_04NIHEBCM@?5new@     0000000180036cd4     libvcruntime:undname.obj
 0002:00001ce0       ??_C@_07FPCDHGMM@?5delete@ 0000000180036ce0     libvcruntime:undname.obj
 0002:00001ce8       ??_C@_01NEMOKFLO@?$DN@     0000000180036ce8     libvcruntime:undname.obj
 0002:00001cec       ??_C@_02GPIOPFAK@?$DO?$DO@ 0000000180036cec     libvcruntime:undname.obj
 0002:00001cf0       ??_C@_02FODMEDOG@?$DM?$DM@ 0000000180036cf0     libvcruntime:undname.obj
 0002:00001cf4       ??_C@_01DCLJPIOD@?$CB@     0000000180036cf4     libvcruntime:undname.obj
 0002:00001cf8       ??_C@_02EGOFBIJA@?$DN?$DN@ 0000000180036cf8     libvcruntime:undname.obj
 0002:00001cfc       ??_C@_02FDNJECIE@?$CB?$DN@ 0000000180036cfc     libvcruntime:undname.obj
 0002:00001d00       ??_C@_02GPECMEKF@?$FL?$FN@ 0000000180036d00     libvcruntime:undname.obj
 0002:00001d08       ??_C@_08LHJFAFGD@operator@ 0000000180036d08     libvcruntime:undname.obj
 0002:00001d14       ??_C@_02HBOOOICD@?9?$DO@   0000000180036d14     libvcruntime:undname.obj
 0002:00001d18       ??_C@_01NBENCBCI@?$CK@     0000000180036d18     libvcruntime:undname.obj
 0002:00001d1c       ??_C@_02ECNGHCIF@?$CL?$CL@ 0000000180036d1c     libvcruntime:undname.obj
 0002:00001d20       ??_C@_02BAABKJLB@?9?9@     0000000180036d20     libvcruntime:undname.obj
 0002:00001d24       ??_C@_01JOAMLHOP@?9@       0000000180036d24     libvcruntime:undname.obj
 0002:00001d28       ??_C@_01MIFGBAGJ@?$CL@     0000000180036d28     libvcruntime:undname.obj
 0002:00001d2c       ??_C@_01HNPIGOCE@?$CG@     0000000180036d2c     libvcruntime:undname.obj
 0002:00001d30       ??_C@_03MNHNFDLC@?9?$DO?$CK@ 0000000180036d30     libvcruntime:undname.obj
 0002:00001d34       ??_C@_01KMDKNFGN@?1@       0000000180036d34     libvcruntime:undname.obj
 0002:00001d38       ??_C@_01FGNFDNOH@?$CF@     0000000180036d38     libvcruntime:undname.obj
 0002:00001d3c       ??_C@_01MNNFJEPP@?$DM@     0000000180036d3c     libvcruntime:undname.obj
 0002:00001d40       ??_C@_02EHCHHCKH@?$DM?$DN@ 0000000180036d40     libvcruntime:undname.obj
 0002:00001d44       ??_C@_01PPODPGHN@?$DO@     0000000180036d44     libvcruntime:undname.obj
 0002:00001d48       ??_C@_02EEKDKGMJ@?$DO?$DN@ 0000000180036d48     libvcruntime:undname.obj
 0002:00001d4c       ??_C@_01IHBHIGKO@?0@       0000000180036d4c     libvcruntime:undname.obj
 0002:00001d50       ??_C@_02HCKGKOFO@?$CI?$CJ@ 0000000180036d50     libvcruntime:undname.obj
 0002:00001d54       ??_C@_01PJKLJHI@?$HO@      0000000180036d54     libvcruntime:undname.obj
 0002:00001d58       ??_C@_01JKBOJNNK@?$FO@     0000000180036d58     libvcruntime:undname.obj
 0002:00001d5c       ??_C@_01DNKMNLPK@?$HM@     0000000180036d5c     libvcruntime:undname.obj
 0002:00001d60       ??_C@_02PPKAJPJL@?$CG?$CG@ 0000000180036d60     libvcruntime:undname.obj
 0002:00001d64       ??_C@_02NONPIBCD@?$HM?$HM@ 0000000180036d64     libvcruntime:undname.obj
 0002:00001d68       ??_C@_02FPIMKNGF@?$CK?$DN@ 0000000180036d68     libvcruntime:undname.obj
 0002:00001d6c       ??_C@_02FOEOMHFC@?$CL?$DN@ 0000000180036d6c     libvcruntime:undname.obj
 0002:00001d70       ??_C@_02FKMDLLOA@?9?$DN@   0000000180036d70     libvcruntime:undname.obj
 0002:00001d74       ??_C@_02FJEHGPIO@?1?$DN@   0000000180036d74     libvcruntime:undname.obj
 0002:00001d78       ??_C@_02FENAOKFI@?$CF?$DN@ 0000000180036d78     libvcruntime:undname.obj
 0002:00001d7c       ??_C@_03IKFCCPFF@?$DO?$DO?$DN@ 0000000180036d7c     libvcruntime:undname.obj
 0002:00001d80       ??_C@_03CDNPDDLA@?$DM?$DM?$DN@ 0000000180036d80     libvcruntime:undname.obj
 0002:00001d84       ??_C@_02FGJGFEAB@?$CG?$DN@ 0000000180036d84     libvcruntime:undname.obj
 0002:00001d88       ??_C@_02DHLNPPGH@?$HM?$DN@ 0000000180036d88     libvcruntime:undname.obj
 0002:00001d8c       ??_C@_02MHEGNOJ@?$FO?$DN@  0000000180036d8c     libvcruntime:undname.obj
 0002:00001d90       ??_C@_09IFPLHPGF@?$GAvftable?8@ 0000000180036d90     libvcruntime:undname.obj
 0002:00001da0       ??_C@_09BLBHBJP@?$GAvbtable?8@ 0000000180036da0     libvcruntime:undname.obj
 0002:00001db0       ??_C@_07FEEIOKP@?$GAvcall?8@ 0000000180036db0     libvcruntime:undname.obj
 0002:00001db8       ??_C@_08LLFFHHDJ@?$GAtypeof?8@ 0000000180036db8     libvcruntime:undname.obj
 0002:00001dc8       ??_C@_0BF@KDPPACIK@?$GAlocal?5static?5guard?8@ 0000000180036dc8     libvcruntime:undname.obj
 0002:00001de0       ??_C@_08OBABFOLI@?$GAstring?8@ 0000000180036de0     libvcruntime:undname.obj
 0002:00001df0       ??_C@_0BD@JDLKDPAB@?$GAvbase?5destructor?8@ 0000000180036df0     libvcruntime:undname.obj
 0002:00001e08       ??_C@_0BN@DEGPLNFK@?$GAvector?5deleting?5destructor?8@ 0000000180036e08     libvcruntime:undname.obj
 0002:00001e28       ??_C@_0BO@OBMKPJIG@?$GAdefault?5constructor?5closure?8@ 0000000180036e28     libvcruntime:undname.obj
 0002:00001e48       ??_C@_0BN@IMDCHIKM@?$GAscalar?5deleting?5destructor?8@ 0000000180036e48     libvcruntime:undname.obj
 0002:00001e68       ??_C@_0BO@PFGOCPJJ@?$GAvector?5constructor?5iterator?8@ 0000000180036e68     libvcruntime:undname.obj
 0002:00001e88       ??_C@_0BN@LFPFMEDL@?$GAvector?5destructor?5iterator?8@ 0000000180036e88     libvcruntime:undname.obj
 0002:00001ea8       ??_C@_0CE@IKBNEHA@?$GAvector?5vbase?5constructor?5itera@ 0000000180036ea8     libvcruntime:undname.obj
 0002:00001ed0       ??_C@_0BL@NILFHHPC@?$GAvirtual?5displacement?5map?8@ 0000000180036ed0     libvcruntime:undname.obj
 0002:00001ef0       ??_C@_0CB@JONCMFFK@?$GAeh?5vector?5constructor?5iterator@ 0000000180036ef0     libvcruntime:undname.obj
 0002:00001f18       ??_C@_0CA@GCEOPDGL@?$GAeh?5vector?5destructor?5iterator?8@ 0000000180036f18     libvcruntime:undname.obj
 0002:00001f38       ??_C@_0CH@OOJPLCPH@?$GAeh?5vector?5vbase?5constructor?5it@ 0000000180036f38     libvcruntime:undname.obj
 0002:00001f60       ??_C@_0BL@LLKPOHJI@?$GAcopy?5constructor?5closure?8@ 0000000180036f60     libvcruntime:undname.obj
 0002:00001f80       ??_C@_0BA@KBCDOMBN@?$GAudt?5returning?8@ 0000000180036f80     libvcruntime:undname.obj
 0002:00001f90       ??_C@_03KLGMFNMG@?$GAEH@   0000000180036f90     libvcruntime:undname.obj
 0002:00001f94       ??_C@_05KHLCHHI@?$GARTTI@  0000000180036f94     libvcruntime:undname.obj
 0002:00001fa0       ??_C@_0BA@KKLDJDLB@?$GAlocal?5vftable?8@ 0000000180036fa0     libvcruntime:undname.obj
 0002:00001fb0       ??_C@_0CE@IIHCMGGL@?$GAlocal?5vftable?5constructor?5clos@ 0000000180036fb0     libvcruntime:undname.obj
 0002:00001fd4       ??_C@_06FHBGPFGH@?5new?$FL?$FN@ 0000000180036fd4     libvcruntime:undname.obj
 0002:00001fe0       ??_C@_09LBNFPBCA@?5delete?$FL?$FN@ 0000000180036fe0     libvcruntime:undname.obj
 0002:00001ff0       ??_C@_0P@HJKNJFNN@?$GAomni?5callsig?8@ 0000000180036ff0     libvcruntime:undname.obj
 0002:00002000       ??_C@_0BL@CNOONJFP@?$GAplacement?5delete?5closure?8@ 0000000180037000     libvcruntime:undname.obj
 0002:00002020       ??_C@_0BN@CKNJLHMB@?$GAplacement?5delete?$FL?$FN?5closure?8@ 0000000180037020     libvcruntime:undname.obj
 0002:00002040       ??_C@_0CG@CFDHKGGD@?$GAmanaged?5vector?5constructor?5ite@ 0000000180037040     libvcruntime:undname.obj
 0002:00002068       ??_C@_0CF@IMGKMJNO@?$GAmanaged?5vector?5destructor?5iter@ 0000000180037068     libvcruntime:undname.obj
 0002:00002090       ??_C@_0CG@HLDDJMAG@?$GAeh?5vector?5copy?5constructor?5ite@ 0000000180037090     libvcruntime:undname.obj
 0002:000020b8       ??_C@_0CM@FCBBDIGB@?$GAeh?5vector?5vbase?5copy?5construct@ 00000001800370b8     libvcruntime:undname.obj
 0002:000020e8       ??_C@_0BL@CLIPGLGB@?$GAdynamic?5initializer?5for?5?8@ 00000001800370e8     libvcruntime:undname.obj
 0002:00002108       ??_C@_0CB@PDBIFEP@?$GAdynamic?5atexit?5destructor?5for?5@ 0000000180037108     libvcruntime:undname.obj
 0002:00002130       ??_C@_0CD@CGAJBKEJ@?$GAvector?5copy?5constructor?5iterat@ 0000000180037130     libvcruntime:undname.obj
 0002:00002158       ??_C@_0CJ@GJELGAMM@?$GAvector?5vbase?5copy?5constructor?5@ 0000000180037158     libvcruntime:undname.obj
 0002:00002188       ??_C@_0CL@FGIJHLCE@?$GAmanaged?5vector?5copy?5constructo@ 0000000180037188     libvcruntime:undname.obj
 0002:000021b8       ??_C@_0BM@PMGGMLDN@?$GAlocal?5static?5thread?5guard?8@ 00000001800371b8     libvcruntime:undname.obj
 0002:000021d8       ??_C@_0N@BDNMDMOL@operator?5?$CC?$CC?5@ 00000001800371d8     libvcruntime:undname.obj
 0002:000021e8       ??_C@_0BC@GGEBGALA@operator?5co_await@ 00000001800371e8     libvcruntime:undname.obj
 0002:00002200       ??_C@_0M@GAAIMMOH@operator?$DM?$DN?$DO@ 0000000180037200     libvcruntime:undname.obj
 0002:00002210       ??_C@_0BC@DAFEJGAK@?5Type?5Descriptor?8@ 0000000180037210     libvcruntime:undname.obj
 0002:00002228       ??_C@_0BM@LDKODKLH@?5Base?5Class?5Descriptor?5at?5?$CI@ 0000000180037228     libvcruntime:undname.obj
 0002:00002248       ??_C@_0BD@LGICGFMM@?5Base?5Class?5Array?8@ 0000000180037248     libvcruntime:undname.obj
 0002:00002260       ??_C@_0BN@MECKDCOJ@?5Class?5Hierarchy?5Descriptor?8@ 0000000180037260     libvcruntime:undname.obj
 0002:00002280       ??_C@_0BK@CFCOFLF@?5Complete?5Object?5Locator?8@ 0000000180037280     libvcruntime:undname.obj
 0002:000022a0       ??_C@_0BG@JNJLAMPM@?$GAanonymous?5namespace?8@ 00000001800372a0     libvcruntime:undname.obj
 0002:000022d0       ??_C@_1DM@KHCHBNEB@?$AAa?$AAp?$AAi?$AA?9?$AAm?$AAs?$AA?9?$AAw?$AAi?$AAn?$AA?9?$AAc?$AAo?$AAr?$AAe@ 00000001800372d0     libvcruntime:winapi_downlevel.obj
 0002:00002310       ??_C@_1DK@LPPGFMPP@?$AAa?$AAp?$AAi?$AA?9?$AAm?$AAs?$AA?9?$AAw?$AAi?$AAn?$AA?9?$AAc?$AAo?$AAr?$AAe@ 0000000180037310     libvcruntime:winapi_downlevel.obj
 0002:00002350       ??_C@_1BC@GDMECMAK@?$AAk?$AAe?$AAr?$AAn?$AAe?$AAl?$AA3?$AA2@ 0000000180037350     libvcruntime:winapi_downlevel.obj
 0002:00002368       ??_C@_1BA@PFFKHIOG@?$AAa?$AAp?$AAi?$AA?9?$AAm?$AAs?$AA?9@ 0000000180037368     libvcruntime:winapi_downlevel.obj
 0002:00002380       ??_C@_08KNHFBNJ@FlsAlloc@  0000000180037380     libvcruntime:winapi_downlevel.obj
 0002:00002398       ??_C@_07PEJMOBNF@FlsFree@  0000000180037398     libvcruntime:winapi_downlevel.obj
 0002:000023a8       ??_C@_0M@GDNOONDI@FlsGetValue@ 00000001800373a8     libvcruntime:winapi_downlevel.obj
 0002:000023c0       ??_C@_0M@JCPCPOEF@FlsSetValue@ 00000001800373c0     libvcruntime:winapi_downlevel.obj
 0002:000023d8       ??_C@_0BM@HCFOFFN@InitializeCriticalSectionEx@ 00000001800373d8     libvcruntime:winapi_downlevel.obj
 0002:00002f30       __real@00000000            0000000180037f30     libucrt:tanhf.obj
 0002:00002f34       __real@3585fdf4            0000000180037f34     libucrt:tanhf.obj
 0002:00002f38       __real@382089d8            0000000180037f38     libucrt:tanhf.obj
 0002:00002f3c       __real@384d2b7d            0000000180037f3c     libucrt:tanhf.obj
 0002:00002f40       __real@3aa18e00            0000000180037f40     libucrt:tanhf.obj
 0002:00002f44       __real@3abfbc9e            0000000180037f44     libucrt:tanhf.obj
 0002:00002f48       __real@3cb17000            0000000180037f48     libucrt:tanhf.obj
 0002:00002f4c       __real@3e7679b1            0000000180037f4c     libucrt:tanhf.obj
 0002:00002f50       __real@3e9058e0            0000000180037f50     libucrt:tanhf.obj
 0002:00002f54       __real@3e95c65f            0000000180037f54     libucrt:tanhf.obj
 0002:00002f58       __real@3eaf769c            0000000180037f58     libucrt:tanhf.obj
 0002:00002f5c       __real@3f38db60            0000000180037f5c     libucrt:tanhf.obj
 0002:00002f60       __real@3f588550            0000000180037f60     libucrt:tanhf.obj
 0002:00002f64       __real@3f666666            0000000180037f64     libucrt:tanhf.obj
 0002:00002f68       __real@4238aa3b            0000000180037f68     libucrt:tanhf.obj
 0002:00003928       ??_C@_04COOMCNPB@sinh?$AA@ 0000000180038928     libucrt:sinh.obj
 0002:00003930       __real@0000000000000000    0000000180038930     libucrt:sinh.obj
 0002:00003938       __real@3d6b4125921ea08b    0000000180038938     libucrt:sinh.obj
 0002:00003940       __real@3da9984b7f63fcd7    0000000180038940     libucrt:sinh.obj
 0002:00003948       __real@3dcf473de6af278e    0000000180038948     libucrt:sinh.obj
 0002:00003950       __real@3de611cb2bdcb7be    0000000180038950     libucrt:sinh.obj
 0002:00003958       __real@3e21ee56385b7b20    0000000180038958     libucrt:sinh.obj
 0002:00003960       __real@3e5ae6460fbe61c0    0000000180038960     libucrt:sinh.obj
 0002:00003968       __real@3e927e5069f1cb55    0000000180038968     libucrt:sinh.obj
 0002:00003970       __real@3ec71de3a4e13e7d    0000000180038970     libucrt:sinh.obj
 0002:00003978       __real@3efa01a019079011    0000000180038978     libucrt:sinh.obj
 0002:00003980       __real@3f2a01a01a01ee80    0000000180038980     libucrt:sinh.obj
 0002:00003988       __real@3f56c16c16c212e5    0000000180038988     libucrt:sinh.obj
 0002:00003990       __real@3f56c1728d739765    0000000180038990     libucrt:sinh.obj
 0002:00003998       __real@3f811111111110fd    0000000180038998     libucrt:sinh.obj
 0002:000039a0       __real@3f811115b7aa905e    00000001800389a0     libucrt:sinh.obj
 0002:000039a8       __real@3f962e42fe000000    00000001800389a8     libucrt:sinh.obj
 0002:000039b0       __real@3fa5555555545d4e    00000001800389b0     libucrt:sinh.obj
 0002:000039b8       __real@3fa5555555555502    00000001800389b8     libucrt:sinh.obj
 0002:000039c0       __real@3fc5555555548f7c    00000001800389c0     libucrt:sinh.obj
 0002:000039c8       __real@3fc5555555555555    00000001800389c8     libucrt:sinh.obj
 0002:000039d0       __real@3fe0000000000000    00000001800389d0     libucrt:sinh.obj
 0002:000039d8       __real@40420fd21b95825f    00000001800389d8     libucrt:sinh.obj
 0002:000039e0       __real@40471547652b82fe    00000001800389e0     libucrt:sinh.obj
 0002:000039e8       __real@408633ce8fb9f87e    00000001800389e8     libucrt:sinh.obj
 0002:00004da0       ??_C@_04EIAKFFMI@sqrt?$AA@ 0000000180039da0     libucrt:sqrt.obj
 0002:00004f40       __acrt_exception_action_table 0000000180039f40     libucrt:exception_filter.obj
 0002:00005000       __acrt_signal_action_table_count 000000018003a000     libucrt:exception_filter.obj
 0002:00005008       __acrt_signal_action_first_fpe_index 000000018003a008     libucrt:exception_filter.obj
 0002:00005010       __acrt_signal_action_fpe_count 000000018003a010     libucrt:exception_filter.obj
 0002:00005018       ??_C@_1BI@BGOHAHKC@?$AAm?$AAs?$AAc?$AAo?$AAr?$AAe?$AAe?$AA?4?$AAd?$AAl?$AAl?$AA?$AA@ 000000018003a018     libucrt:exit.obj
 0002:00005030       ??_C@_0P@MIGLKIOC@CorExitProcess?$AA@ 000000018003a030     libucrt:exit.obj
 0002:00005140       __Lcosfarray               000000018003a140     libucrt:lsincosf_array.obj
 0002:00005170       __Lsinfarray               000000018003a170     libucrt:lsincosf_array.obj
 0002:00005190       __L_2_by_pi_bits           000000018003a190     libucrt:l2_by_pi_bits.obj
 0002:000052e0       ??_C@_04LAGPAAHP@sinf?$AA@ 000000018003a2e0     libucrt:sincos_special.obj
 0002:000052e8       ??_C@_03BLEJJJBH@sin?$AA@  000000018003a2e8     libucrt:sincos_special.obj
 0002:000052ec       ??_C@_04OBBKPIAC@cosf?$AA@ 000000018003a2ec     libucrt:sincos_special.obj
 0002:000052f4       ??_C@_03IIINPABG@tan?$AA@  000000018003a2f4     libucrt:sincos_special.obj
 0002:00005300       __two_to_jby64_table       000000018003a300     libucrt:two_to_jby64_table.obj
 0002:00005500       __log_F_inv_qword          000000018003a500     libucrt:log_f_inv_qword_table.obj
 0002:00005d10       ??_C@_04MBFDLNIM@powf?$AA@ 000000018003ad10     libucrt:pow_special.obj
 0002:00005d18       ??_C@_03JGHBODFD@pow?$AA@  000000018003ad18     libucrt:pow_special.obj
 0002:00005d20       __two_to_jby64_head_table  000000018003ad20     libucrt:two_to_jby64_head_tail_table.obj
 0002:00005f20       __two_to_jby64_tail_table  000000018003af20     libucrt:two_to_jby64_head_tail_table.obj
 0002:00006120       ??_C@_03KHJOGHMM@exp?$AA@  000000018003b120     libucrt:exp_special.obj
 0002:00006130       __Lcosarray                000000018003b130     libucrt:lsincos_array.obj
 0002:00006190       __Lsinarray                000000018003b190     libucrt:lsincos_array.obj
 0002:00006520       __log_256_lead             000000018003b520     libucrt:log_256_lead_tail_table.obj
 0002:00006d30       __log_256_tail             000000018003bd30     libucrt:log_256_lead_tail_table.obj
 0002:000076c0       ??_C@_1M@HPNHIDJI@?$AAj?$AAa?$AA?9?$AAJ?$AAP?$AA?$AA@ 000000018003c6c0     libucrt:mbctype.obj
 0002:000076d0       ??_C@_1M@BIBDDEMK@?$AAz?$AAh?$AA?9?$AAC?$AAN?$AA?$AA@ 000000018003c6d0     libucrt:mbctype.obj
 0002:000076e0       ??_C@_1M@JLOOOEGK@?$AAk?$AAo?$AA?9?$AAK?$AAR?$AA?$AA@ 000000018003c6e0     libucrt:mbctype.obj
 0002:000076f0       ??_C@_1M@CLNBBOPM@?$AAz?$AAh?$AA?9?$AAT?$AAW?$AA?$AA@ 000000018003c6f0     libucrt:mbctype.obj
 0002:000077a0       ??_C@_1EA@JGEFHKEI@?$AAa?$AAp?$AAi?$AA?9?$AAm?$AAs?$AA?9?$AAw?$AAi?$AAn?$AA?9?$AAc?$AAo?$AAr?$AAe?$AA?9?$AAd?$AAa?$AAt?$AAe?$AAt?$AAi?$AAm?$AAe?$AA?9?$AAl?$AA1?$AA?9?$AA1?$AA?9?$AA1?$AA?$AA@ 000000018003c7a0     libucrt:winapi_thunks.obj
 0002:000077e0       ??_C@_1DM@KHCHBNEB@?$AAa?$AAp?$AAi?$AA?9?$AAm?$AAs?$AA?9?$AAw?$AAi?$AAn?$AA?9?$AAc?$AAo?$AAr?$AAe?$AA?9?$AAf?$AAi?$AAb?$AAe?$AAr?$AAs?$AA?9?$AAl?$AA1?$AA?9?$AA1?$AA?9?$AA1?$AA?$AA@ 000000018003c7e0     libucrt:winapi_thunks.obj
 0002:00007820       ??_C@_1DI@IJCEHOCB@?$AAa?$AAp?$AAi?$AA?9?$AAm?$AAs?$AA?9?$AAw?$AAi?$AAn?$AA?9?$AAc?$AAo?$AAr?$AAe?$AA?9?$AAf?$AAi?$AAl?$AAe?$AA?9?$AAl?$AA1?$AA?9?$AA2?$AA?9?$AA2?$AA?$AA@ 000000018003c820     libucrt:winapi_thunks.obj
 0002:00007860       ??_C@_1EI@MPIAOHOC@?$AAa?$AAp?$AAi?$AA?9?$AAm?$AAs?$AA?9?$AAw?$AAi?$AAn?$AA?9?$AAc?$AAo?$AAr?$AAe?$AA?9?$AAl?$AAo?$AAc?$AAa?$AAl?$AAi?$AAz?$AAa?$AAt?$AAi?$AAo?$AAn?$AA?9?$AAl?$AA1?$AA?9@ 000000018003c860     libucrt:winapi_thunks.obj
 0002:000078b0       ??_C@_1FK@FPHCKFIE@?$AAa?$AAp?$AAi?$AA?9?$AAm?$AAs?$AA?9?$AAw?$AAi?$AAn?$AA?9?$AAc?$AAo?$AAr?$AAe?$AA?9?$AAl?$AAo?$AAc?$AAa?$AAl?$AAi?$AAz?$AAa?$AAt?$AAi?$AAo?$AAn?$AA?9?$AAo?$AAb?$AAs@ 000000018003c8b0     libucrt:winapi_thunks.obj
 0002:00007910       ??_C@_1EM@DILCGIIO@?$AAa?$AAp?$AAi?$AA?9?$AAm?$AAs?$AA?9?$AAw?$AAi?$AAn?$AA?9?$AAc?$AAo?$AAr?$AAe?$AA?9?$AAp?$AAr?$AAo?$AAc?$AAe?$AAs?$AAs?$AAt?$AAh?$AAr?$AAe?$AAa?$AAd?$AAs?$AA?9?$AAl@ 000000018003c910     libucrt:winapi_thunks.obj
 0002:00007960       ??_C@_1DM@LNCGDDPN@?$AAa?$AAp?$AAi?$AA?9?$AAm?$AAs?$AA?9?$AAw?$AAi?$AAn?$AA?9?$AAc?$AAo?$AAr?$AAe?$AA?9?$AAs?$AAt?$AAr?$AAi?$AAn?$AAg?$AA?9?$AAl?$AA1?$AA?9?$AA1?$AA?9?$AA0?$AA?$AA@ 000000018003c960     libucrt:winapi_thunks.obj
 0002:000079a0       ??_C@_1DK@LPPGFMPP@?$AAa?$AAp?$AAi?$AA?9?$AAm?$AAs?$AA?9?$AAw?$AAi?$AAn?$AA?9?$AAc?$AAo?$AAr?$AAe?$AA?9?$AAs?$AAy?$AAn?$AAc?$AAh?$AA?9?$AAl?$AA1?$AA?9?$AA2?$AA?9?$AA0?$AA?$AA@ 000000018003c9a0     libucrt:winapi_thunks.obj
 0002:000079e0       ??_C@_1DO@FPAPJEMD@?$AAa?$AAp?$AAi?$AA?9?$AAm?$AAs?$AA?9?$AAw?$AAi?$AAn?$AA?9?$AAc?$AAo?$AAr?$AAe?$AA?9?$AAs?$AAy?$AAs?$AAi?$AAn?$AAf?$AAo?$AA?9?$AAl?$AA1?$AA?9?$AA2?$AA?9?$AA1?$AA?$AA@ 000000018003c9e0     libucrt:winapi_thunks.obj
 0002:00007a20       ??_C@_1DK@NDHNAHIO@?$AAa?$AAp?$AAi?$AA?9?$AAm?$AAs?$AA?9?$AAw?$AAi?$AAn?$AA?9?$AAc?$AAo?$AAr?$AAe?$AA?9?$AAw?$AAi?$AAn?$AAr?$AAt?$AA?9?$AAl?$AA1?$AA?9?$AA1?$AA?9?$AA0?$AA?$AA@ 000000018003ca20     libucrt:winapi_thunks.obj
 0002:00007a60       ??_C@_1DM@KGHDGBCM@?$AAa?$AAp?$AAi?$AA?9?$AAm?$AAs?$AA?9?$AAw?$AAi?$AAn?$AA?9?$AAc?$AAo?$AAr?$AAe?$AA?9?$AAx?$AAs?$AAt?$AAa?$AAt?$AAe?$AA?9?$AAl?$AA2?$AA?9?$AA1?$AA?9?$AA0?$AA?$AA@ 000000018003ca60     libucrt:winapi_thunks.obj
 0002:00007aa0       ??_C@_1EO@IJIOEFOH@?$AAa?$AAp?$AAi?$AA?9?$AAm?$AAs?$AA?9?$AAw?$AAi?$AAn?$AA?9?$AAr?$AAt?$AAc?$AAo?$AAr?$AAe?$AA?9?$AAn?$AAt?$AAu?$AAs?$AAe?$AAr?$AA?9?$AAw?$AAi?$AAn?$AAd?$AAo?$AAw?$AA?9@ 000000018003caa0     libucrt:winapi_thunks.obj
 0002:00007af0       ??_C@_1FG@HHGEKANL@?$AAa?$AAp?$AAi?$AA?9?$AAm?$AAs?$AA?9?$AAw?$AAi?$AAn?$AA?9?$AAs?$AAe?$AAc?$AAu?$AAr?$AAi?$AAt?$AAy?$AA?9?$AAs?$AAy?$AAs?$AAt?$AAe?$AAm?$AAf?$AAu?$AAn?$AAc?$AAt?$AAi@ 000000018003caf0     libucrt:winapi_thunks.obj
 0002:00007b50       ??_C@_1EG@DBIOJECG@?$AAe?$AAx?$AAt?$AA?9?$AAm?$AAs?$AA?9?$AAw?$AAi?$AAn?$AA?9?$AAn?$AAt?$AAu?$AAs?$AAe?$AAr?$AA?9?$AAd?$AAi?$AAa?$AAl?$AAo?$AAg?$AAb?$AAo?$AAx?$AA?9?$AAl?$AA1?$AA?9?$AA1@ 000000018003cb50     libucrt:winapi_thunks.obj
 0002:00007ba0       ??_C@_1EO@FIHMJCLF@?$AAe?$AAx?$AAt?$AA?9?$AAm?$AAs?$AA?9?$AAw?$AAi?$AAn?$AA?9?$AAn?$AAt?$AAu?$AAs?$AAe?$AAr?$AA?9?$AAw?$AAi?$AAn?$AAd?$AAo?$AAw?$AAs?$AAt?$AAa?$AAt?$AAi?$AAo?$AAn?$AA?9@ 000000018003cba0     libucrt:winapi_thunks.obj
 0002:00007bf0       ??_C@_1BC@DNHGCMLG@?$AAa?$AAd?$AAv?$AAa?$AAp?$AAi?$AA3?$AA2?$AA?$AA@ 000000018003cbf0     libucrt:winapi_thunks.obj
 0002:00007c08       ??_C@_1BC@GDMECMAK@?$AAk?$AAe?$AAr?$AAn?$AAe?$AAl?$AA3?$AA2?$AA?$AA@ 000000018003cc08     libucrt:winapi_thunks.obj
 0002:00007c20       ??_C@_1M@OAIMIKLP@?$AAn?$AAt?$AAd?$AAl?$AAl?$AA?$AA@ 000000018003cc20     libucrt:winapi_thunks.obj
 0002:00007c30       ??_C@_1EG@DPGNFKGC@?$AAa?$AAp?$AAi?$AA?9?$AAm?$AAs?$AA?9?$AAw?$AAi?$AAn?$AA?9?$AAa?$AAp?$AAp?$AAm?$AAo?$AAd?$AAe?$AAl?$AA?9?$AAr?$AAu?$AAn?$AAt?$AAi?$AAm?$AAe?$AA?9?$AAl?$AA1?$AA?9?$AA1@ 000000018003cc30     libucrt:winapi_thunks.obj
 0002:00007c78       ??_C@_1O@BCCLBEOE@?$AAu?$AAs?$AAe?$AAr?$AA3?$AA2?$AA?$AA@ 000000018003cc78     libucrt:winapi_thunks.obj
 0002:00007c88       ??_C@_1BA@PFFKHIOG@?$AAa?$AAp?$AAi?$AA?9?$AAm?$AAs?$AA?9?$AA?$AA@ 000000018003cc88     libucrt:winapi_thunks.obj
 0002:00007c98       ??_C@_1BA@IAIFMGEF@?$AAe?$AAx?$AAt?$AA?9?$AAm?$AAs?$AA?9?$AA?$AA@ 000000018003cc98     libucrt:winapi_thunks.obj
 0002:00007cb0       ??_C@_08KNHFBNJ@FlsAlloc?$AA@ 000000018003ccb0     libucrt:winapi_thunks.obj
 0002:00007cc8       ??_C@_07PEJMOBNF@FlsFree?$AA@ 000000018003ccc8     libucrt:winapi_thunks.obj
 0002:00007cd8       ??_C@_0M@GDNOONDI@FlsGetValue?$AA@ 000000018003ccd8     libucrt:winapi_thunks.obj
 0002:00007cf0       ??_C@_0M@JCPCPOEF@FlsSetValue?$AA@ 000000018003ccf0     libucrt:winapi_thunks.obj
 0002:00007d08       ??_C@_0BM@HCFOFFN@InitializeCriticalSectionEx?$AA@ 000000018003cd08     libucrt:winapi_thunks.obj
 0002:00007d30       ??_C@_0O@KKBNKAPF@LCMapStringEx?$AA@ 000000018003cd30     libucrt:winapi_thunks.obj
 0002:00007d48       ??_C@_0BB@HBDEELFH@LocaleNameToLCID?$AA@ 000000018003cd48     libucrt:winapi_thunks.obj
 0002:00007d60       ??_C@_0CF@OJOFEIGO@AppPolicyGetProcessTerminationMe@ 000000018003cd60     libucrt:winapi_thunks.obj
 0002:00007d90       __lc_time_c                000000018003cd90     libucrt:nlsdata.obj
 0002:00008050       ??_C@_03KOEHGMDN@Sun?$AA@  000000018003d050     libucrt:nlsdata.obj
 0002:00008054       ??_C@_03PDAGKDH@Mon?$AA@   000000018003d054     libucrt:nlsdata.obj
 0002:00008058       ??_C@_03NAGEINEP@Tue?$AA@  000000018003d058     libucrt:nlsdata.obj
 0002:0000805c       ??_C@_03MHOMLAJA@Wed?$AA@  000000018003d05c     libucrt:nlsdata.obj
 0002:00008060       ??_C@_03IOFIKPDN@Thu?$AA@  000000018003d060     libucrt:nlsdata.obj
 0002:00008064       ??_C@_03IDIOELNC@Fri?$AA@  000000018003d064     libucrt:nlsdata.obj
 0002:00008068       ??_C@_03FEFJNEK@Sat?$AA@   000000018003d068     libucrt:nlsdata.obj
 0002:0000806c       ??_C@_06OOPIFAJ@Sunday?$AA@ 000000018003d06c     libucrt:nlsdata.obj
 0002:00008074       ??_C@_06JLEDEDGH@Monday?$AA@ 000000018003d074     libucrt:nlsdata.obj
 0002:00008080       ??_C@_07BAAGCFCM@Tuesday?$AA@ 000000018003d080     libucrt:nlsdata.obj
 0002:00008088       ??_C@_09DLIGFAKA@Wednesday?$AA@ 000000018003d088     libucrt:nlsdata.obj
 0002:00008098       ??_C@_08HACCIKIA@Thursday?$AA@ 000000018003d098     libucrt:nlsdata.obj
 0002:000080a4       ??_C@_06JECMNKMI@Friday?$AA@ 000000018003d0a4     libucrt:nlsdata.obj
 0002:000080b0       ??_C@_08INBOOONO@Saturday?$AA@ 000000018003d0b0     libucrt:nlsdata.obj
 0002:000080bc       ??_C@_03JIHJHPIE@Jan?$AA@  000000018003d0bc     libucrt:nlsdata.obj
 0002:000080c0       ??_C@_03HJBDCHOM@Feb?$AA@  000000018003d0c0     libucrt:nlsdata.obj
 0002:000080c4       ??_C@_03ODNJBKGA@Mar?$AA@  000000018003d0c4     libucrt:nlsdata.obj
 0002:000080c8       ??_C@_03LEOLGMJP@Apr?$AA@  000000018003d0c8     libucrt:nlsdata.obj
 0002:000080cc       ??_C@_03CNMDKL@May?$AA@    000000018003d0cc     libucrt:nlsdata.obj
 0002:000080d0       ??_C@_03IDFGHECI@Jun?$AA@  000000018003d0d0     libucrt:nlsdata.obj
 0002:000080d4       ??_C@_03LBGABGKK@Jul?$AA@  000000018003d0d4     libucrt:nlsdata.obj
 0002:000080d8       ??_C@_03IFJFEIGA@Aug?$AA@  000000018003d0d8     libucrt:nlsdata.obj
 0002:000080dc       ??_C@_03GGCAPAJC@Sep?$AA@  000000018003d0dc     libucrt:nlsdata.obj
 0002:000080e0       ??_C@_03BMAOKBAD@Oct?$AA@  000000018003d0e0     libucrt:nlsdata.obj
 0002:000080e4       ??_C@_03JPJOFNIA@Nov?$AA@  000000018003d0e4     libucrt:nlsdata.obj
 0002:000080e8       ??_C@_03MKABNOCG@Dec?$AA@  000000018003d0e8     libucrt:nlsdata.obj
 0002:000080f0       ??_C@_07CGJPFGJA@January?$AA@ 000000018003d0f0     libucrt:nlsdata.obj
 0002:000080f8       ??_C@_08GNJGEPFN@February?$AA@ 000000018003d0f8     libucrt:nlsdata.obj
 0002:00008104       ??_C@_05HPCKOFNC@March?$AA@ 000000018003d104     libucrt:nlsdata.obj
 0002:0000810c       ??_C@_05DMJDNLEJ@April?$AA@ 000000018003d10c     libucrt:nlsdata.obj
 0002:00008114       ??_C@_04CNLMGBGM@June?$AA@ 000000018003d114     libucrt:nlsdata.obj
 0002:0000811c       ??_C@_04MIEPOIFP@July?$AA@ 000000018003d11c     libucrt:nlsdata.obj
 0002:00008124       ??_C@_06LBBHFDDG@August?$AA@ 000000018003d124     libucrt:nlsdata.obj
 0002:00008130       ??_C@_09BHHEALKD@September?$AA@ 000000018003d130     libucrt:nlsdata.obj
 0002:00008140       ??_C@_07JJNFCEND@October?$AA@ 000000018003d140     libucrt:nlsdata.obj
 0002:00008148       ??_C@_08HCHEGEOA@November?$AA@ 000000018003d148     libucrt:nlsdata.obj
 0002:00008158       ??_C@_08EDHMEBNP@December?$AA@ 000000018003d158     libucrt:nlsdata.obj
 0002:00008164       ??_C@_02DEDBPAFC@AM?$AA@   000000018003d164     libucrt:nlsdata.obj
 0002:00008168       ??_C@_02CJNFDJBF@PM?$AA@   000000018003d168     libucrt:nlsdata.obj
 0002:00008170       ??_C@_08BPBNCDIB@MM?1dd?1yy?$AA@ 000000018003d170     libucrt:nlsdata.obj
 0002:00008180       ??_C@_0BE@CKGJFCPC@dddd?0?5MMMM?5dd?0?5yyyy?$AA@ 000000018003d180     libucrt:nlsdata.obj
 0002:00008198       ??_C@_08JCCMCCIL@HH?3mm?3ss?$AA@ 000000018003d198     libucrt:nlsdata.obj
 0002:000081a8       ??_C@_17MBGCMIPB@?$AAS?$AAu?$AAn?$AA?$AA@ 000000018003d1a8     libucrt:nlsdata.obj
 0002:000081b0       ??_C@_17KBOMKBF@?$AAM?$AAo?$AAn?$AA?$AA@ 000000018003d1b0     libucrt:nlsdata.obj
 0002:000081b8       ??_C@_17BMKGEGOJ@?$AAT?$AAu?$AAe?$AA?$AA@ 000000018003d1b8     libucrt:nlsdata.obj
 0002:000081c0       ??_C@_17CJEDCEPE@?$AAW?$AAe?$AAd?$AA?$AA@ 000000018003d1c0     libucrt:nlsdata.obj
 0002:000081c8       ??_C@_17PDPHAADD@?$AAT?$AAh?$AAu?$AA?$AA@ 000000018003d1c8     libucrt:nlsdata.obj
 0002:000081d0       ??_C@_17HFOLPPLP@?$AAF?$AAr?$AAi?$AA?$AA@ 000000018003d1d0     libucrt:nlsdata.obj
 0002:000081d8       ??_C@_17GGIBDPIH@?$AAS?$AAa?$AAt?$AA?$AA@ 000000018003d1d8     libucrt:nlsdata.obj
 0002:000081e0       ??_C@_1O@IHNHDHPB@?$AAS?$AAu?$AAn?$AAd?$AAa?$AAy?$AA?$AA@ 000000018003d1e0     libucrt:nlsdata.obj
 0002:000081f0       ??_C@_1O@MMNBFLIA@?$AAM?$AAo?$AAn?$AAd?$AAa?$AAy?$AA?$AA@ 000000018003d1f0     libucrt:nlsdata.obj
 0002:00008200       ??_C@_1BA@ENFBFFEK@?$AAT?$AAu?$AAe?$AAs?$AAd?$AAa?$AAy?$AA?$AA@ 000000018003d200     libucrt:nlsdata.obj
 0002:00008210       ??_C@_1BE@EBOGMDOH@?$AAW?$AAe?$AAd?$AAn?$AAe?$AAs?$AAd?$AAa?$AAy?$AA?$AA@ 000000018003d210     libucrt:nlsdata.obj
 0002:00008228       ??_C@_1BC@HHMNLIHE@?$AAT?$AAh?$AAu?$AAr?$AAs?$AAd?$AAa?$AAy?$AA?$AA@ 000000018003d228     libucrt:nlsdata.obj
 0002:00008240       ??_C@_1O@PDICJHAG@?$AAF?$AAr?$AAi?$AAd?$AAa?$AAy?$AA?$AA@ 000000018003d240     libucrt:nlsdata.obj
 0002:00008250       ??_C@_1BC@ENMNNPAJ@?$AAS?$AAa?$AAt?$AAu?$AAr?$AAd?$AAa?$AAy?$AA?$AA@ 000000018003d250     libucrt:nlsdata.obj
 0002:00008268       ??_C@_17DKNBKCHM@?$AAJ?$AAa?$AAn?$AA?$AA@ 000000018003d268     libucrt:nlsdata.obj
 0002:00008270       ??_C@_17LMDJEKJN@?$AAF?$AAe?$AAb?$AA?$AA@ 000000018003d270     libucrt:nlsdata.obj
 0002:00008278       ??_C@_17CKNLEDEC@?$AAM?$AAa?$AAr?$AA?$AA@ 000000018003d278     libucrt:nlsdata.obj
 0002:00008280       ??_C@_17LFPOIHDD@?$AAA?$AAp?$AAr?$AA?$AA@ 000000018003d280     libucrt:nlsdata.obj
 0002:00008288       ??_C@_17PNNKMEED@?$AAM?$AAa?$AAy?$AA?$AA@ 000000018003d288     libucrt:nlsdata.obj
 0002:00008290       ??_C@_17KCJGOCPB@?$AAJ?$AAu?$AAn?$AA?$AA@ 000000018003d290     libucrt:nlsdata.obj
 0002:00008298       ??_C@_17IJPCKHK@?$AAJ?$AAu?$AAl?$AA?$AA@ 000000018003d298     libucrt:nlsdata.obj
 0002:000082a0       ??_C@_17ICPELBCN@?$AAA?$AAu?$AAg?$AA?$AA@ 000000018003d2a0     libucrt:nlsdata.obj
 0002:000082a8       ??_C@_17HCHCOKMG@?$AAS?$AAe?$AAp?$AA?$AA@ 000000018003d2a8     libucrt:nlsdata.obj
 0002:000082b0       ??_C@_17FNLKOI@?$AAO?$AAc?$AAt?$AA?$AA@ 000000018003d2b0     libucrt:nlsdata.obj
 0002:000082b8       ??_C@_17BBDMLCIG@?$AAN?$AAo?$AAv?$AA?$AA@ 000000018003d2b8     libucrt:nlsdata.obj
 0002:000082c0       ??_C@_17EGKACKIF@?$AAD?$AAe?$AAc?$AA?$AA@ 000000018003d2c0     libucrt:nlsdata.obj
 0002:000082c8       ??_C@_1BA@EFMEIEBA@?$AAJ?$AAa?$AAn?$AAu?$AAa?$AAr?$AAy?$AA?$AA@ 000000018003d2c8     libucrt:nlsdata.obj
 0002:000082d8       ??_C@_1BC@JGDDFFAM@?$AAF?$AAe?$AAb?$AAr?$AAu?$AAa?$AAr?$AAy?$AA?$AA@ 000000018003d2d8     libucrt:nlsdata.obj
 0002:000082f0       ??_C@_1M@IKEENEDF@?$AAM?$AAa?$AAr?$AAc?$AAh?$AA?$AA@ 000000018003d2f0     libucrt:nlsdata.obj
 0002:00008300       ??_C@_1M@GJNLMHFD@?$AAA?$AAp?$AAr?$AAi?$AAl?$AA?$AA@ 000000018003d300     libucrt:nlsdata.obj
 0002:00008310       ??_C@_19EPFLPGAP@?$AAJ?$AAu?$AAn?$AAe?$AA?$AA@ 000000018003d310     libucrt:nlsdata.obj
 0002:00008320       ??_C@_19BIFMLPCD@?$AAJ?$AAu?$AAl?$AAy?$AA?$AA@ 000000018003d320     libucrt:nlsdata.obj
 0002:00008330       ??_C@_1O@PAHLKOAC@?$AAA?$AAu?$AAg?$AAu?$AAs?$AAt?$AA?$AA@ 000000018003d330     libucrt:nlsdata.obj
 0002:00008340       ??_C@_1BE@DKAAMBJL@?$AAS?$AAe?$AAp?$AAt?$AAe?$AAm?$AAb?$AAe?$AAr?$AA?$AA@ 000000018003d340     libucrt:nlsdata.obj
 0002:00008358       ??_C@_1BA@EPANDLNG@?$AAO?$AAc?$AAt?$AAo?$AAb?$AAe?$AAr?$AA?$AA@ 000000018003d358     libucrt:nlsdata.obj
 0002:00008368       ??_C@_1BC@BGLIFPF@?$AAN?$AAo?$AAv?$AAe?$AAm?$AAb?$AAe?$AAr?$AA?$AA@ 000000018003d368     libucrt:nlsdata.obj
 0002:00008380       ??_C@_1BC@FEMKIFH@?$AAD?$AAe?$AAc?$AAe?$AAm?$AAb?$AAe?$AAr?$AA?$AA@ 000000018003d380     libucrt:nlsdata.obj
 0002:00008394       ??_C@_15ODEHAHHF@?$AAA?$AAM?$AA?$AA@ 000000018003d394     libucrt:nlsdata.obj
 0002:0000839c       ??_C@_15CLMNNGEL@?$AAP?$AAM?$AA?$AA@ 000000018003d39c     libucrt:nlsdata.obj
 0002:000083a8       ??_C@_1BC@IEBCMHCM@?$AAM?$AAM?$AA?1?$AAd?$AAd?$AA?1?$AAy?$AAy?$AA?$AA@ 000000018003d3a8     libucrt:nlsdata.obj
 0002:000083c0       ??_C@_1CI@KNAKOEBC@?$AAd?$AAd?$AAd?$AAd?$AA?0?$AA?5?$AAM?$AAM?$AAM?$AAM?$AA?5?$AAd?$AAd?$AA?0?$AA?5?$AAy?$AAy?$AAy?$AAy?$AA?$AA@ 000000018003d3c0     libucrt:nlsdata.obj
 0002:000083e8       ??_C@_1BC@GDGBMEMK@?$AAH?$AAH?$AA?3?$AAm?$AAm?$AA?3?$AAs?$AAs?$AA?$AA@ 000000018003d3e8     libucrt:nlsdata.obj
 0002:00008400       ??_C@_1M@BMHNFIME@?$AAe?$AAn?$AA?9?$AAU?$AAS?$AA?$AA@ 000000018003d400     libucrt:nlsdata.obj
 0002:00008410       __newctype                 000000018003d410     libucrt:ctype.obj
 0002:00008710       __newclmap                 000000018003d710     libucrt:ctype.obj
 0002:00008890       __newcumap                 000000018003d890     libucrt:ctype.obj
 0002:00008a20       ??_C@_05HGHHAHAP@log10?$AA@ 000000018003da20     libucrt:fpexcept.obj
 0002:00008a28       ??_C@_1M@BJNKEDC@?$AAc?$AAa?$AA?9?$AAE?$AAS?$AA?$AA@ 000000018003da28     libucrt:lcidtoname_downlevel.obj
 0002:00008a38       ??_C@_1M@IJJHFJHA@?$AAc?$AAs?$AA?9?$AAC?$AAZ?$AA?$AA@ 000000018003da38     libucrt:lcidtoname_downlevel.obj
 0002:00008a48       ??_C@_1M@CLPEOBGI@?$AAd?$AAa?$AA?9?$AAD?$AAK?$AA?$AA@ 000000018003da48     libucrt:lcidtoname_downlevel.obj
 0002:00008a58       ??_C@_1M@MCMADGCB@?$AAd?$AAe?$AA?9?$AAD?$AAE?$AA?$AA@ 000000018003da58     libucrt:lcidtoname_downlevel.obj
 0002:00008a68       ??_C@_1M@OOCKEMAM@?$AAe?$AAl?$AA?9?$AAG?$AAR?$AA?$AA@ 000000018003da68     libucrt:lcidtoname_downlevel.obj
 0002:00008a78       ??_C@_1M@DDNJFGID@?$AAf?$AAi?$AA?9?$AAF?$AAI?$AA?$AA@ 000000018003da78     libucrt:lcidtoname_downlevel.obj
 0002:00008a88       ??_C@_1M@GLIPPMAC@?$AAf?$AAr?$AA?9?$AAF?$AAR?$AA?$AA@ 000000018003da88     libucrt:lcidtoname_downlevel.obj
 0002:00008a98       ??_C@_1M@GFMCHPE@?$AAh?$AAe?$AA?9?$AAI?$AAL?$AA?$AA@ 000000018003da98     libucrt:lcidtoname_downlevel.obj
 0002:00008aa8       ??_C@_1M@MHLPGNKM@?$AAh?$AAu?$AA?9?$AAH?$AAU?$AA?$AA@ 000000018003daa8     libucrt:lcidtoname_downlevel.obj
 0002:00008ab8       ??_C@_1M@LPDDNNPN@?$AAi?$AAs?$AA?9?$AAI?$AAS?$AA?$AA@ 000000018003dab8     libucrt:lcidtoname_downlevel.obj
 0002:00008ac8       ??_C@_1M@MADIPODN@?$AAi?$AAt?$AA?9?$AAI?$AAT?$AA?$AA@ 000000018003dac8     libucrt:lcidtoname_downlevel.obj
 0002:00008ad8       ??_C@_1M@IHBJJGG@?$AAn?$AAl?$AA?9?$AAN?$AAL?$AA?$AA@ 000000018003dad8     libucrt:lcidtoname_downlevel.obj
 0002:00008ae8       ??_C@_1M@EANAGDL@?$AAn?$AAb?$AA?9?$AAN?$AAO?$AA?$AA@ 000000018003dae8     libucrt:lcidtoname_downlevel.obj
 0002:00008af8       ??_C@_1M@NEIEMEGP@?$AAp?$AAl?$AA?9?$AAP?$AAL?$AA?$AA@ 000000018003daf8     libucrt:lcidtoname_downlevel.obj
 0002:00008b08       ??_C@_1M@BOCFIGEP@?$AAp?$AAt?$AA?9?$AAB?$AAR?$AA?$AA@ 000000018003db08     libucrt:lcidtoname_downlevel.obj
 0002:00008b18       ??_C@_1M@IMPFOPBG@?$AAr?$AAo?$AA?9?$AAR?$AAO?$AA?$AA@ 000000018003db18     libucrt:lcidtoname_downlevel.obj
 0002:00008b28       ??_C@_1M@IDNNEJMM@?$AAr?$AAu?$AA?9?$AAR?$AAU?$AA?$AA@ 000000018003db28     libucrt:lcidtoname_downlevel.obj
 0002:00008b38       ??_C@_1M@LILEEOGM@?$AAh?$AAr?$AA?9?$AAH?$AAR?$AA?$AA@ 000000018003db38     libucrt:lcidtoname_downlevel.obj
 0002:00008b48       ??_C@_1M@FKIFEHPB@?$AAs?$AAk?$AA?9?$AAS?$AAK?$AA?$AA@ 000000018003db48     libucrt:lcidtoname_downlevel.obj
 0002:00008b58       ??_C@_1M@LJMAMNPJ@?$AAs?$AAq?$AA?9?$AAA?$AAL?$AA?$AA@ 000000018003db58     libucrt:lcidtoname_downlevel.obj
 0002:00008b68       ??_C@_1M@GIAKDKJK@?$AAs?$AAv?$AA?9?$AAS?$AAE?$AA?$AA@ 000000018003db68     libucrt:lcidtoname_downlevel.obj
 0002:00008b78       ??_C@_1M@MKJKIKCL@?$AAt?$AAh?$AA?9?$AAT?$AAH?$AA?$AA@ 000000018003db78     libucrt:lcidtoname_downlevel.obj
 0002:00008b88       ??_C@_1M@MFLCCMPB@?$AAt?$AAr?$AA?9?$AAT?$AAR?$AA?$AA@ 000000018003db88     libucrt:lcidtoname_downlevel.obj
 0002:00008b98       ??_C@_1M@OIJHDKJN@?$AAu?$AAr?$AA?9?$AAP?$AAK?$AA?$AA@ 000000018003db98     libucrt:lcidtoname_downlevel.obj
 0002:00008ba8       ??_C@_1M@LHIPCIEK@?$AAi?$AAd?$AA?9?$AAI?$AAD?$AA?$AA@ 000000018003dba8     libucrt:lcidtoname_downlevel.obj
 0002:00008bb8       ??_C@_1M@MFMOBGI@?$AAu?$AAk?$AA?9?$AAU?$AAA?$AA?$AA@ 000000018003dbb8     libucrt:lcidtoname_downlevel.obj
 0002:00008bc8       ??_C@_1M@OBGLJIPL@?$AAb?$AAe?$AA?9?$AAB?$AAY?$AA?$AA@ 000000018003dbc8     libucrt:lcidtoname_downlevel.obj
 0002:00008bd8       ??_C@_1M@BCFAJEAD@?$AAs?$AAl?$AA?9?$AAS?$AAI?$AA?$AA@ 000000018003dbd8     libucrt:lcidtoname_downlevel.obj
 0002:00008be8       ??_C@_1M@FKFFEDDN@?$AAe?$AAt?$AA?9?$AAE?$AAE?$AA?$AA@ 000000018003dbe8     libucrt:lcidtoname_downlevel.obj
 0002:00008bf8       ??_C@_1M@KGKKAACI@?$AAl?$AAv?$AA?9?$AAL?$AAV?$AA?$AA@ 000000018003dbf8     libucrt:lcidtoname_downlevel.obj
 0002:00008c08       ??_C@_1M@IFGBIJO@?$AAl?$AAt?$AA?9?$AAL?$AAT?$AA?$AA@ 000000018003dc08     libucrt:lcidtoname_downlevel.obj
 0002:00008c18       ??_C@_1M@FGEAHEDM@?$AAf?$AAa?$AA?9?$AAI?$AAR?$AA?$AA@ 000000018003dc18     libucrt:lcidtoname_downlevel.obj
 0002:00008c28       ??_C@_1M@KBMAIBFN@?$AAv?$AAi?$AA?9?$AAV?$AAN?$AA?$AA@ 000000018003dc28     libucrt:lcidtoname_downlevel.obj
 0002:00008c38       ??_C@_1M@GPCBKDJK@?$AAh?$AAy?$AA?9?$AAA?$AAM?$AA?$AA@ 000000018003dc38     libucrt:lcidtoname_downlevel.obj
 0002:00008c48       ??_C@_1BG@BECMDDJB@?$AAa?$AAz?$AA?9?$AAA?$AAZ?$AA?9?$AAL?$AAa?$AAt?$AAn?$AA?$AA@ 000000018003dc48     libucrt:lcidtoname_downlevel.obj
 0002:00008c60       ??_C@_1M@MAOFCAEA@?$AAe?$AAu?$AA?9?$AAE?$AAS?$AA?$AA@ 000000018003dc60     libucrt:lcidtoname_downlevel.obj
 0002:00008c70       ??_C@_1M@IGHABKPI@?$AAm?$AAk?$AA?9?$AAM?$AAK?$AA?$AA@ 000000018003dc70     libucrt:lcidtoname_downlevel.obj
 0002:00008c80       ??_C@_1M@IAIGNEJG@?$AAt?$AAn?$AA?9?$AAZ?$AAA?$AA?$AA@ 000000018003dc80     libucrt:lcidtoname_downlevel.obj
 0002:00008c90       ??_C@_1M@IIJCOJFA@?$AAx?$AAh?$AA?9?$AAZ?$AAA?$AA?$AA@ 000000018003dc90     libucrt:lcidtoname_downlevel.obj
 0002:00008ca0       ??_C@_1M@LGPJHNJH@?$AAz?$AAu?$AA?9?$AAZ?$AAA?$AA?$AA@ 000000018003dca0     libucrt:lcidtoname_downlevel.obj
 0002:00008cb0       ??_C@_1M@HOKAOIO@?$AAa?$AAf?$AA?9?$AAZ?$AAA?$AA?$AA@ 000000018003dcb0     libucrt:lcidtoname_downlevel.obj
 0002:00008cc0       ??_C@_1M@DPCLHLIE@?$AAk?$AAa?$AA?9?$AAG?$AAE?$AA?$AA@ 000000018003dcc0     libucrt:lcidtoname_downlevel.obj
 0002:00008cd0       ??_C@_1M@BLKMHJBI@?$AAf?$AAo?$AA?9?$AAF?$AAO?$AA?$AA@ 000000018003dcd0     libucrt:lcidtoname_downlevel.obj
 0002:00008ce0       ??_C@_1M@LGGJAPPB@?$AAh?$AAi?$AA?9?$AAI?$AAN?$AA?$AA@ 000000018003dce0     libucrt:lcidtoname_downlevel.obj
 0002:00008cf0       ??_C@_1M@FIKPIHFE@?$AAm?$AAt?$AA?9?$AAM?$AAT?$AA?$AA@ 000000018003dcf0     libucrt:lcidtoname_downlevel.obj
 0002:00008d00       ??_C@_1M@HEGGPBFA@?$AAs?$AAe?$AA?9?$AAN?$AAO?$AA?$AA@ 000000018003dd00     libucrt:lcidtoname_downlevel.obj
 0002:00008d10       ??_C@_1M@EIBJEEPA@?$AAm?$AAs?$AA?9?$AAM?$AAY?$AA?$AA@ 000000018003dd10     libucrt:lcidtoname_downlevel.obj
 0002:00008d20       ??_C@_1M@FHLBGMPP@?$AAk?$AAk?$AA?9?$AAK?$AAZ?$AA?$AA@ 000000018003dd20     libucrt:lcidtoname_downlevel.obj
 0002:00008d30       ??_C@_1M@NGJJLCGI@?$AAk?$AAy?$AA?9?$AAK?$AAG?$AA?$AA@ 000000018003dd30     libucrt:lcidtoname_downlevel.obj
 0002:00008d40       ??_C@_1M@GIENNBFC@?$AAs?$AAw?$AA?9?$AAK?$AAE?$AA?$AA@ 000000018003dd40     libucrt:lcidtoname_downlevel.obj
 0002:00008d50       ??_C@_1BG@NDGMJIMJ@?$AAu?$AAz?$AA?9?$AAU?$AAZ?$AA?9?$AAL?$AAa?$AAt?$AAn?$AA?$AA@ 000000018003dd50     libucrt:lcidtoname_downlevel.obj
 0002:00008d68       ??_C@_1M@IDCCIHBC@?$AAt?$AAt?$AA?9?$AAR?$AAU?$AA?$AA@ 000000018003dd68     libucrt:lcidtoname_downlevel.obj
 0002:00008d78       ??_C@_1M@LOICPMOJ@?$AAb?$AAn?$AA?9?$AAI?$AAN?$AA?$AA@ 000000018003dd78     libucrt:lcidtoname_downlevel.obj
 0002:00008d88       ??_C@_1M@KPKKNEAH@?$AAp?$AAa?$AA?9?$AAI?$AAN?$AA?$AA@ 000000018003dd88     libucrt:lcidtoname_downlevel.obj
 0002:00008d98       ??_C@_1M@PJGPPBOG@?$AAg?$AAu?$AA?9?$AAI?$AAN?$AA?$AA@ 000000018003dd98     libucrt:lcidtoname_downlevel.obj
 0002:00008da8       ??_C@_1M@KMKMOPHI@?$AAt?$AAa?$AA?9?$AAI?$AAN?$AA?$AA@ 000000018003dda8     libucrt:lcidtoname_downlevel.obj
 0002:00008db8       ??_C@_1M@KFEHEPAC@?$AAt?$AAe?$AA?9?$AAI?$AAN?$AA?$AA@ 000000018003ddb8     libucrt:lcidtoname_downlevel.obj
 0002:00008dc8       ??_C@_1M@CDCLMGHI@?$AAk?$AAn?$AA?9?$AAI?$AAN?$AA?$AA@ 000000018003ddc8     libucrt:lcidtoname_downlevel.obj
 0002:00008dd8       ??_C@_1M@MIODLDKF@?$AAm?$AAl?$AA?9?$AAI?$AAN?$AA?$AA@ 000000018003ddd8     libucrt:lcidtoname_downlevel.obj
 0002:00008de8       ??_C@_1M@PBIEACPO@?$AAm?$AAr?$AA?9?$AAI?$AAN?$AA?$AA@ 000000018003dde8     libucrt:lcidtoname_downlevel.obj
 0002:00008df8       ??_C@_1M@NIDEAGPH@?$AAs?$AAa?$AA?9?$AAI?$AAN?$AA?$AA@ 000000018003ddf8     libucrt:lcidtoname_downlevel.obj
 0002:00008e08       ??_C@_1M@FHIHCBIO@?$AAm?$AAn?$AA?9?$AAM?$AAN?$AA?$AA@ 000000018003de08     libucrt:lcidtoname_downlevel.obj
 0002:00008e18       ??_C@_1M@JAIJPENP@?$AAc?$AAy?$AA?9?$AAG?$AAB?$AA?$AA@ 000000018003de18     libucrt:lcidtoname_downlevel.obj
 0002:00008e28       ??_C@_1M@PHGFBEPN@?$AAg?$AAl?$AA?9?$AAE?$AAS?$AA?$AA@ 000000018003de28     libucrt:lcidtoname_downlevel.obj
 0002:00008e38       ??_C@_1O@KPIPDNCP@?$AAk?$AAo?$AAk?$AA?9?$AAI?$AAN?$AA?$AA@ 000000018003de38     libucrt:lcidtoname_downlevel.obj
 0002:00008e48       ??_C@_1O@KNHJLDJA@?$AAs?$AAy?$AAr?$AA?9?$AAS?$AAY?$AA?$AA@ 000000018003de48     libucrt:lcidtoname_downlevel.obj
 0002:00008e58       ??_C@_1O@MKEKBLAH@?$AAd?$AAi?$AAv?$AA?9?$AAM?$AAV?$AA?$AA@ 000000018003de58     libucrt:lcidtoname_downlevel.obj
 0002:00008e68       ??_C@_1O@OHDCKDDF@?$AAq?$AAu?$AAz?$AA?9?$AAB?$AAO?$AA?$AA@ 000000018003de68     libucrt:lcidtoname_downlevel.obj
 0002:00008e78       ??_C@_1M@LEPJNLFD@?$AAn?$AAs?$AA?9?$AAZ?$AAA?$AA?$AA@ 000000018003de78     libucrt:lcidtoname_downlevel.obj
 0002:00008e88       ??_C@_1M@OMLEIIJB@?$AAm?$AAi?$AA?9?$AAN?$AAZ?$AA?$AA@ 000000018003de88     libucrt:lcidtoname_downlevel.obj
 0002:00008e98       ??_C@_1M@PMPEAILG@?$AAa?$AAr?$AA?9?$AAI?$AAQ?$AA?$AA@ 000000018003de98     libucrt:lcidtoname_downlevel.obj
 0002:00008ea8       ??_C@_1M@CNKPNOEE@?$AAd?$AAe?$AA?9?$AAC?$AAH?$AA?$AA@ 000000018003dea8     libucrt:lcidtoname_downlevel.obj
 0002:00008eb8       ??_C@_1M@LKMGMLKO@?$AAe?$AAn?$AA?9?$AAG?$AAB?$AA?$AA@ 000000018003deb8     libucrt:lcidtoname_downlevel.obj
 0002:00008ec8       ??_C@_1M@PGKJFFGL@?$AAe?$AAs?$AA?9?$AAM?$AAX?$AA?$AA@ 000000018003dec8     libucrt:lcidtoname_downlevel.obj
 0002:00008ed8       ??_C@_1M@DNNANBDC@?$AAf?$AAr?$AA?9?$AAB?$AAE?$AA?$AA@ 000000018003ded8     libucrt:lcidtoname_downlevel.obj
 0002:00008ee8       ??_C@_1M@HLGMDFHM@?$AAi?$AAt?$AA?9?$AAC?$AAH?$AA?$AA@ 000000018003dee8     libucrt:lcidtoname_downlevel.obj
 0002:00008ef8       ??_C@_1M@CLLBGJH@?$AAn?$AAl?$AA?9?$AAB?$AAE?$AA?$AA@ 000000018003def8     libucrt:lcidtoname_downlevel.obj
 0002:00008f08       ??_C@_1M@BODBOGLF@?$AAn?$AAn?$AA?9?$AAN?$AAO?$AA?$AA@ 000000018003df08     libucrt:lcidtoname_downlevel.obj
 0002:00008f18       ??_C@_1M@HFFAHKAD@?$AAp?$AAt?$AA?9?$AAP?$AAT?$AA?$AA@ 000000018003df18     libucrt:lcidtoname_downlevel.obj
 0002:00008f28       ??_C@_1BG@LNOAKHIE@?$AAs?$AAr?$AA?9?$AAS?$AAP?$AA?9?$AAL?$AAa?$AAt?$AAn?$AA?$AA@ 000000018003df28     libucrt:lcidtoname_downlevel.obj
 0002:00008f40       ??_C@_1M@HBMHBGAK@?$AAs?$AAv?$AA?9?$AAF?$AAI?$AA?$AA@ 000000018003df40     libucrt:lcidtoname_downlevel.obj
 0002:00008f50       ??_C@_1BG@DGCJGJBE@?$AAa?$AAz?$AA?9?$AAA?$AAZ?$AA?9?$AAC?$AAy?$AAr?$AAl?$AA?$AA@ 000000018003df50     libucrt:lcidtoname_downlevel.obj
 0002:00008f68       ??_C@_1M@KEJDAAHB@?$AAs?$AAe?$AA?9?$AAS?$AAE?$AA?$AA@ 000000018003df68     libucrt:lcidtoname_downlevel.obj
 0002:00008f78       ??_C@_1M@HEIBJJAD@?$AAm?$AAs?$AA?9?$AAB?$AAN?$AA?$AA@ 000000018003df78     libucrt:lcidtoname_downlevel.obj
 0002:00008f88       ??_C@_1BG@PBGJMCEM@?$AAu?$AAz?$AA?9?$AAU?$AAZ?$AA?9?$AAC?$AAy?$AAr?$AAl?$AA?$AA@ 000000018003df88     libucrt:lcidtoname_downlevel.obj
 0002:00008fa0       ??_C@_1O@LAOBCMDF@?$AAq?$AAu?$AAz?$AA?9?$AAE?$AAC?$AA?$AA@ 000000018003dfa0     libucrt:lcidtoname_downlevel.obj
 0002:00008fb0       ??_C@_1M@POEEMAIO@?$AAa?$AAr?$AA?9?$AAE?$AAG?$AA?$AA@ 000000018003dfb0     libucrt:lcidtoname_downlevel.obj
 0002:00008fc0       ??_C@_1M@EFAKDEDL@?$AAz?$AAh?$AA?9?$AAH?$AAK?$AA?$AA@ 000000018003dfc0     libucrt:lcidtoname_downlevel.obj
 0002:00008fd0       ??_C@_1M@HKKIJHGI@?$AAd?$AAe?$AA?9?$AAA?$AAT?$AA?$AA@ 000000018003dfd0     libucrt:lcidtoname_downlevel.obj
 0002:00008fe0       ??_C@_1M@KBFBEHJF@?$AAe?$AAn?$AA?9?$AAA?$AAU?$AA?$AA@ 000000018003dfe0     libucrt:lcidtoname_downlevel.obj
 0002:00008ff0       ??_C@_1M@MNPLFAAH@?$AAe?$AAs?$AA?9?$AAE?$AAS?$AA?$AA@ 000000018003dff0     libucrt:lcidtoname_downlevel.obj
 0002:00009000       ??_C@_1M@HJOOJFMA@?$AAf?$AAr?$AA?9?$AAC?$AAA?$AA?$AA@ 000000018003e000     libucrt:lcidtoname_downlevel.obj
 0002:00009010       ??_C@_1BG@JPOFPNAB@?$AAs?$AAr?$AA?9?$AAS?$AAP?$AA?9?$AAC?$AAy?$AAr?$AAl?$AA?$AA@ 000000018003e010     libucrt:lcidtoname_downlevel.obj
 0002:00009028       ??_C@_1M@LNFOCMOB@?$AAs?$AAe?$AA?9?$AAF?$AAI?$AA?$AA@ 000000018003e028     libucrt:lcidtoname_downlevel.obj
 0002:00009038       ??_C@_1O@MGJBOAMB@?$AAq?$AAu?$AAz?$AA?9?$AAP?$AAE?$AA?$AA@ 000000018003e038     libucrt:lcidtoname_downlevel.obj
 0002:00009048       ??_C@_1M@GJINLBOK@?$AAa?$AAr?$AA?9?$AAL?$AAY?$AA?$AA@ 000000018003e048     libucrt:lcidtoname_downlevel.obj
 0002:00009058       ??_C@_1M@GGMNHJNL@?$AAz?$AAh?$AA?9?$AAS?$AAG?$AA?$AA@ 000000018003e058     libucrt:lcidtoname_downlevel.obj
 0002:00009068       ??_C@_1M@HOIKODND@?$AAd?$AAe?$AA?9?$AAL?$AAU?$AA?$AA@ 000000018003e068     libucrt:lcidtoname_downlevel.obj
 0002:00009078       ??_C@_1M@DDOCCGFG@?$AAe?$AAn?$AA?9?$AAC?$AAA?$AA?$AA@ 000000018003e078     libucrt:lcidtoname_downlevel.obj
 0002:00009088       ??_C@_1M@BNOEMJLF@?$AAe?$AAs?$AA?9?$AAG?$AAT?$AA?$AA@ 000000018003e088     libucrt:lcidtoname_downlevel.obj
 0002:00009098       ??_C@_1M@EOGNKEK@?$AAf?$AAr?$AA?9?$AAC?$AAH?$AA?$AA@ 000000018003e098     libucrt:lcidtoname_downlevel.obj
 0002:000090a8       ??_C@_1M@FLIDJFHL@?$AAh?$AAr?$AA?9?$AAB?$AAA?$AA?$AA@ 000000018003e0a8     libucrt:lcidtoname_downlevel.obj
 0002:000090b8       ??_C@_1O@FMCELNAJ@?$AAs?$AAm?$AAj?$AA?9?$AAN?$AAO?$AA?$AA@ 000000018003e0b8     libucrt:lcidtoname_downlevel.obj
 0002:000090c8       ??_C@_1M@JHGLJMGJ@?$AAa?$AAr?$AA?9?$AAD?$AAZ?$AA?$AA@ 000000018003e0c8     libucrt:lcidtoname_downlevel.obj
 0002:000090d8       ??_C@_1M@JKKFDCNP@?$AAz?$AAh?$AA?9?$AAM?$AAO?$AA?$AA@ 000000018003e0d8     libucrt:lcidtoname_downlevel.obj
 0002:000090e8       ??_C@_1M@GEEFALPE@?$AAd?$AAe?$AA?9?$AAL?$AAI?$AA?$AA@ 000000018003e0e8     libucrt:lcidtoname_downlevel.obj
 0002:000090f8       ??_C@_1M@IGEOFBG@?$AAe?$AAn?$AA?9?$AAN?$AAZ?$AA?$AA@ 000000018003e0f8     libucrt:lcidtoname_downlevel.obj
 0002:00009108       ??_C@_1M@KDBONEHP@?$AAe?$AAs?$AA?9?$AAC?$AAR?$AA?$AA@ 000000018003e108     libucrt:lcidtoname_downlevel.obj
 0002:00009118       ??_C@_1M@FHMDOHNN@?$AAf?$AAr?$AA?9?$AAL?$AAU?$AA?$AA@ 000000018003e118     libucrt:lcidtoname_downlevel.obj
 0002:00009128       ??_C@_1BG@NFKKMAFG@?$AAb?$AAs?$AA?9?$AAB?$AAA?$AA?9?$AAL?$AAa?$AAt?$AAn?$AA?$AA@ 000000018003e128     libucrt:lcidtoname_downlevel.obj
 0002:00009140       ??_C@_1O@IMNBEMCI@?$AAs?$AAm?$AAj?$AA?9?$AAS?$AAE?$AA?$AA@ 000000018003e140     libucrt:lcidtoname_downlevel.obj
 0002:00009150       ??_C@_1M@DHHMBNDP@?$AAa?$AAr?$AA?9?$AAM?$AAA?$AA?$AA@ 000000018003e150     libucrt:lcidtoname_downlevel.obj
 0002:00009160       ??_C@_1M@BNBLJCGH@?$AAe?$AAn?$AA?9?$AAI?$AAE?$AA?$AA@ 000000018003e160     libucrt:lcidtoname_downlevel.obj
 0002:00009170       ??_C@_1M@GEPAFMDL@?$AAe?$AAs?$AA?9?$AAP?$AAA?$AA?$AA@ 000000018003e170     libucrt:lcidtoname_downlevel.obj
 0002:00009180       ??_C@_1M@OJONDMDL@?$AAf?$AAr?$AA?9?$AAM?$AAC?$AA?$AA@ 000000018003e180     libucrt:lcidtoname_downlevel.obj
 0002:00009190       ??_C@_1BG@OBCNFJB@?$AAs?$AAr?$AA?9?$AAB?$AAA?$AA?9?$AAL?$AAa?$AAt?$AAn?$AA?$AA@ 000000018003e190     libucrt:lcidtoname_downlevel.obj
 0002:000091a8       ??_C@_1O@KEMEEGPO@?$AAs?$AAm?$AAa?$AA?9?$AAN?$AAO?$AA?$AA@ 000000018003e1a8     libucrt:lcidtoname_downlevel.obj
 0002:000091b8       ??_C@_1M@ELMGFODK@?$AAa?$AAr?$AA?9?$AAT?$AAN?$AA?$AA@ 000000018003e1b8     libucrt:lcidtoname_downlevel.obj
 0002:000091c8       ??_C@_1M@BHDLHFAF@?$AAe?$AAn?$AA?9?$AAZ?$AAA?$AA?$AA@ 000000018003e1c8     libucrt:lcidtoname_downlevel.obj
 0002:000091d8       ??_C@_1M@BMGIGLIF@?$AAe?$AAs?$AA?9?$AAD?$AAO?$AA?$AA@ 000000018003e1d8     libucrt:lcidtoname_downlevel.obj
 0002:000091e8       ??_C@_1BG@CMBHIPBE@?$AAs?$AAr?$AA?9?$AAB?$AAA?$AA?9?$AAC?$AAy?$AAr?$AAl?$AA?$AA@ 000000018003e1e8     libucrt:lcidtoname_downlevel.obj
 0002:00009200       ??_C@_1O@HEDBLHNP@?$AAs?$AAm?$AAa?$AA?9?$AAS?$AAE?$AA?$AA@ 000000018003e200     libucrt:lcidtoname_downlevel.obj
 0002:00009210       ??_C@_1M@DAGCADIM@?$AAa?$AAr?$AA?9?$AAO?$AAM?$AA?$AA@ 000000018003e210     libucrt:lcidtoname_downlevel.obj
 0002:00009220       ??_C@_1M@FODLMICG@?$AAe?$AAn?$AA?9?$AAJ?$AAM?$AA?$AA@ 000000018003e220     libucrt:lcidtoname_downlevel.obj
 0002:00009230       ??_C@_1M@DNMLCIHB@?$AAe?$AAs?$AA?9?$AAV?$AAE?$AA?$AA@ 000000018003e230     libucrt:lcidtoname_downlevel.obj
 0002:00009240       ??_C@_1O@EOKHMKJK@?$AAs?$AAm?$AAs?$AA?9?$AAF?$AAI?$AA?$AA@ 000000018003e240     libucrt:lcidtoname_downlevel.obj
 0002:00009250       ??_C@_1M@CAFJMKOF@?$AAa?$AAr?$AA?9?$AAY?$AAE?$AA?$AA@ 000000018003e250     libucrt:lcidtoname_downlevel.obj
 0002:00009260       ??_C@_1M@CBFHIJLI@?$AAe?$AAn?$AA?9?$AAC?$AAB?$AA?$AA@ 000000018003e260     libucrt:lcidtoname_downlevel.obj
 0002:00009270       ??_C@_1M@BGNFLDN@?$AAe?$AAs?$AA?9?$AAC?$AAO?$AA?$AA@ 000000018003e270     libucrt:lcidtoname_downlevel.obj
 0002:00009280       ??_C@_1O@JMPHMAMC@?$AAs?$AAm?$AAn?$AA?9?$AAF?$AAI?$AA?$AA@ 000000018003e280     libucrt:lcidtoname_downlevel.obj
 0002:00009290       ??_C@_1M@JLANABKE@?$AAa?$AAr?$AA?9?$AAS?$AAY?$AA?$AA@ 000000018003e290     libucrt:lcidtoname_downlevel.obj
 0002:000092a0       ??_C@_1M@HPKGCFGN@?$AAe?$AAn?$AA?9?$AAB?$AAZ?$AA?$AA@ 000000018003e2a0     libucrt:lcidtoname_downlevel.obj
 0002:000092b0       ??_C@_1M@OLJCMLGM@?$AAe?$AAs?$AA?9?$AAP?$AAE?$AA?$AA@ 000000018003e2b0     libucrt:lcidtoname_downlevel.obj
 0002:000092c0       ??_C@_1M@MKKGFKLE@?$AAa?$AAr?$AA?9?$AAJ?$AAO?$AA?$AA@ 000000018003e2c0     libucrt:lcidtoname_downlevel.obj
 0002:000092d0       ??_C@_1M@EKPGLDNI@?$AAe?$AAn?$AA?9?$AAT?$AAT?$AA?$AA@ 000000018003e2d0     libucrt:lcidtoname_downlevel.obj
 0002:000092e0       ??_C@_1M@OONGHFHE@?$AAe?$AAs?$AA?9?$AAA?$AAR?$AA?$AA@ 000000018003e2e0     libucrt:lcidtoname_downlevel.obj
 0002:000092f0       ??_C@_1M@OOJFGBHE@?$AAa?$AAr?$AA?9?$AAL?$AAB?$AA?$AA@ 000000018003e2f0     libucrt:lcidtoname_downlevel.obj
 0002:00009300       ??_C@_1M@GCEJHNEG@?$AAe?$AAn?$AA?9?$AAZ?$AAW?$AA?$AA@ 000000018003e300     libucrt:lcidtoname_downlevel.obj
 0002:00009310       ??_C@_1M@JNOCAHJI@?$AAe?$AAs?$AA?9?$AAE?$AAC?$AA?$AA@ 000000018003e310     libucrt:lcidtoname_downlevel.obj
 0002:00009320       ??_C@_1M@JEFHPGGB@?$AAa?$AAr?$AA?9?$AAK?$AAW?$AA?$AA@ 000000018003e320     libucrt:lcidtoname_downlevel.obj
 0002:00009330       ??_C@_1M@MLKIBJOJ@?$AAe?$AAn?$AA?9?$AAP?$AAH?$AA?$AA@ 000000018003e330     libucrt:lcidtoname_downlevel.obj
 0002:00009340       ??_C@_1M@BDNIPEND@?$AAe?$AAs?$AA?9?$AAC?$AAL?$AA?$AA@ 000000018003e340     libucrt:lcidtoname_downlevel.obj
 0002:00009350       ??_C@_1M@MPNMEKBD@?$AAa?$AAr?$AA?9?$AAA?$AAE?$AA?$AA@ 000000018003e350     libucrt:lcidtoname_downlevel.obj
 0002:00009360       ??_C@_1M@KBJALCPI@?$AAe?$AAs?$AA?9?$AAU?$AAY?$AA?$AA@ 000000018003e360     libucrt:lcidtoname_downlevel.obj
 0002:00009370       ??_C@_1M@LLCCOAGA@?$AAa?$AAr?$AA?9?$AAB?$AAH?$AA?$AA@ 000000018003e370     libucrt:lcidtoname_downlevel.obj
 0002:00009380       ??_C@_1M@PBFNCDEL@?$AAe?$AAs?$AA?9?$AAP?$AAY?$AA?$AA@ 000000018003e380     libucrt:lcidtoname_downlevel.obj
 0002:00009390       ??_C@_1M@EDGINPNP@?$AAa?$AAr?$AA?9?$AAQ?$AAA?$AA?$AA@ 000000018003e390     libucrt:lcidtoname_downlevel.obj
 0002:000093a0       ??_C@_1M@MKDBIIJI@?$AAe?$AAs?$AA?9?$AAB?$AAO?$AA?$AA@ 000000018003e3a0     libucrt:lcidtoname_downlevel.obj
 0002:000093b0       ??_C@_1M@CPKKEBLD@?$AAe?$AAs?$AA?9?$AAS?$AAV?$AA?$AA@ 000000018003e3b0     libucrt:lcidtoname_downlevel.obj
 0002:000093c0       ??_C@_1M@NDBGMMJL@?$AAe?$AAs?$AA?9?$AAH?$AAN?$AA?$AA@ 000000018003e3c0     libucrt:lcidtoname_downlevel.obj
 0002:000093d0       ??_C@_1M@JIJIBHDP@?$AAe?$AAs?$AA?9?$AAN?$AAI?$AA?$AA@ 000000018003e3d0     libucrt:lcidtoname_downlevel.obj
 0002:000093e0       ??_C@_1M@CGFMKEEK@?$AAe?$AAs?$AA?9?$AAP?$AAR?$AA?$AA@ 000000018003e3e0     libucrt:lcidtoname_downlevel.obj
 0002:000093f0       ??_C@_1O@ICJHKIIK@?$AAz?$AAh?$AA?9?$AAC?$AAH?$AAT?$AA?$AA@ 000000018003e3f0     libucrt:lcidtoname_downlevel.obj
 0002:00009400       ??_C@_15CLNEJCE@?$AAs?$AAr?$AA?$AA@ 000000018003e400     libucrt:lcidtoname_downlevel.obj
 0002:0000a250       ??_C@_1M@KAHEKEIG@?$AAa?$AAf?$AA?9?$AAz?$AAa?$AA?$AA@ 000000018003f250     libucrt:lcidtoname_downlevel.obj
 0002:0000a260       ??_C@_1M@GIECOABL@?$AAa?$AAr?$AA?9?$AAa?$AAe?$AA?$AA@ 000000018003f260     libucrt:lcidtoname_downlevel.obj
 0002:0000a270       ??_C@_1M@BMLMEKGI@?$AAa?$AAr?$AA?9?$AAb?$AAh?$AA?$AA@ 000000018003f270     libucrt:lcidtoname_downlevel.obj
 0002:0000a280       ??_C@_1M@DAPFDGGB@?$AAa?$AAr?$AA?9?$AAd?$AAz?$AA?$AA@ 000000018003f280     libucrt:lcidtoname_downlevel.obj
 0002:0000a290       ??_C@_1M@FJNKGKIG@?$AAa?$AAr?$AA?9?$AAe?$AAg?$AA?$AA@ 000000018003f290     libucrt:lcidtoname_downlevel.obj
 0002:0000a2a0       ??_C@_1M@FLGKKCLO@?$AAa?$AAr?$AA?9?$AAi?$AAq?$AA?$AA@ 000000018003f2a0     libucrt:lcidtoname_downlevel.obj
 0002:0000a2b0       ??_C@_1M@GNDIPALM@?$AAa?$AAr?$AA?9?$AAj?$AAo?$AA?$AA@ 000000018003f2b0     libucrt:lcidtoname_downlevel.obj
 0002:0000a2c0       ??_C@_1M@DDMJFMGJ@?$AAa?$AAr?$AA?9?$AAk?$AAw?$AA?$AA@ 000000018003f2c0     libucrt:lcidtoname_downlevel.obj
 0002:0000a2d0       ??_C@_1M@EJALMLHM@?$AAa?$AAr?$AA?9?$AAl?$AAb?$AA?$AA@ 000000018003f2d0     libucrt:lcidtoname_downlevel.obj
 0002:0000a2e0       ??_C@_1M@MOBDBLOC@?$AAa?$AAr?$AA?9?$AAl?$AAy?$AA?$AA@ 000000018003f2e0     libucrt:lcidtoname_downlevel.obj
 0002:0000a2f0       ??_C@_1M@JAOCLHDH@?$AAa?$AAr?$AA?9?$AAm?$AAa?$AA?$AA@ 000000018003f2f0     libucrt:lcidtoname_downlevel.obj
 0002:0000a300       ??_C@_1M@JHPMKJIE@?$AAa?$AAr?$AA?9?$AAo?$AAm?$AA?$AA@ 000000018003f300     libucrt:lcidtoname_downlevel.obj
 0002:0000a310       ??_C@_1M@OEPGHFNH@?$AAa?$AAr?$AA?9?$AAq?$AAa?$AA?$AA@ 000000018003f310     libucrt:lcidtoname_downlevel.obj
 0002:0000a320       ??_C@_1M@KJDONENM@?$AAa?$AAr?$AA?9?$AAs?$AAa?$AA?$AA@ 000000018003f320     libucrt:lcidtoname_downlevel.obj
 0002:0000a330       ??_C@_1M@DMJDKLKM@?$AAa?$AAr?$AA?9?$AAs?$AAy?$AA?$AA@ 000000018003f330     libucrt:lcidtoname_downlevel.obj
 0002:0000a340       ??_C@_1M@OMFIPEDC@?$AAa?$AAr?$AA?9?$AAt?$AAn?$AA?$AA@ 000000018003f340     libucrt:lcidtoname_downlevel.obj
 0002:0000a350       ??_C@_1M@IHMHGAON@?$AAa?$AAr?$AA?9?$AAy?$AAe?$AA?$AA@ 000000018003f350     libucrt:lcidtoname_downlevel.obj
 0002:0000a360       ??_C@_1BG@KDCPGJGB@?$AAa?$AAz?$AA?9?$AAa?$AAz?$AA?9?$AAc?$AAy?$AAr?$AAl?$AA?$AA@ 000000018003f360     libucrt:lcidtoname_downlevel.obj
 0002:0000a378       ??_C@_1BG@IBCKDDOE@?$AAa?$AAz?$AA?9?$AAa?$AAz?$AA?9?$AAl?$AAa?$AAt?$AAn?$AA?$AA@ 000000018003f378     libucrt:lcidtoname_downlevel.obj
 0002:0000a390       ??_C@_1M@EGPFDCPD@?$AAb?$AAe?$AA?9?$AAb?$AAy?$AA?$AA@ 000000018003f390     libucrt:lcidtoname_downlevel.obj
 0002:0000a3a0       ??_C@_1M@PCMGMCGC@?$AAb?$AAg?$AA?9?$AAb?$AAg?$AA?$AA@ 000000018003f3a0     libucrt:lcidtoname_downlevel.obj
 0002:0000a3b0       ??_C@_1M@BJBMFGOB@?$AAb?$AAn?$AA?9?$AAi?$AAn?$AA?$AA@ 000000018003f3b0     libucrt:lcidtoname_downlevel.obj
 0002:0000a3c0       ??_C@_1BG@EAKMMACD@?$AAb?$AAs?$AA?9?$AAb?$AAa?$AA?9?$AAl?$AAa?$AAt?$AAn?$AA?$AA@ 000000018003f3c0     libucrt:lcidtoname_downlevel.obj
 0002:0000a3d8       ??_C@_1M@KGADAODK@?$AAc?$AAa?$AA?9?$AAe?$AAs?$AA?$AA@ 000000018003f3d8     libucrt:lcidtoname_downlevel.obj
 0002:0000a3e8       ??_C@_1M@COAJPDHI@?$AAc?$AAs?$AA?9?$AAc?$AAz?$AA?$AA@ 000000018003f3e8     libucrt:lcidtoname_downlevel.obj
 0002:0000a3f8       ??_C@_1M@DHBHFONH@?$AAc?$AAy?$AA?9?$AAg?$AAb?$AA?$AA@ 000000018003f3f8     libucrt:lcidtoname_downlevel.obj
 0002:0000a408       ??_C@_1M@IMGKELGA@?$AAd?$AAa?$AA?9?$AAd?$AAk?$AA?$AA@ 000000018003f408     libucrt:lcidtoname_downlevel.obj
 0002:0000a418       ??_C@_1M@NNDGDNGA@?$AAd?$AAe?$AA?9?$AAa?$AAt?$AA?$AA@ 000000018003f418     libucrt:lcidtoname_downlevel.obj
 0002:0000a428       ??_C@_1M@IKDBHEEM@?$AAd?$AAe?$AA?9?$AAc?$AAh?$AA?$AA@ 000000018003f428     libucrt:lcidtoname_downlevel.obj
 0002:0000a438       ??_C@_1M@GFFOJMCJ@?$AAd?$AAe?$AA?9?$AAd?$AAe?$AA?$AA@ 000000018003f438     libucrt:lcidtoname_downlevel.obj
 0002:0000a448       ??_C@_1M@MDNLKBPM@?$AAd?$AAe?$AA?9?$AAl?$AAi?$AA?$AA@ 000000018003f448     libucrt:lcidtoname_downlevel.obj
 0002:0000a458       ??_C@_1M@NJBEEJNL@?$AAd?$AAe?$AA?9?$AAl?$AAu?$AA?$AA@ 000000018003f458     libucrt:lcidtoname_downlevel.obj
 0002:0000a468       ??_C@_1O@GNNELBAP@?$AAd?$AAi?$AAv?$AA?9?$AAm?$AAv?$AA?$AA@ 000000018003f468     libucrt:lcidtoname_downlevel.obj
 0002:0000a478       ??_C@_1M@EJLEOGAE@?$AAe?$AAl?$AA?9?$AAg?$AAr?$AA?$AA@ 000000018003f478     libucrt:lcidtoname_downlevel.obj
 0002:0000a488       ??_C@_1M@GMPONJN@?$AAe?$AAn?$AA?9?$AAa?$AAu?$AA?$AA@ 000000018003f488     libucrt:lcidtoname_downlevel.obj
 0002:0000a498       ??_C@_1M@NIDIIPGF@?$AAe?$AAn?$AA?9?$AAb?$AAz?$AA?$AA@ 000000018003f498     libucrt:lcidtoname_downlevel.obj
 0002:0000a4a8       ??_C@_1M@JEHMIMFO@?$AAe?$AAn?$AA?9?$AAc?$AAa?$AA?$AA@ 000000018003f4a8     libucrt:lcidtoname_downlevel.obj
 0002:0000a4b8       ??_C@_1M@IGMJCDLA@?$AAe?$AAn?$AA?9?$AAc?$AAb?$AA?$AA@ 000000018003f4b8     libucrt:lcidtoname_downlevel.obj
 0002:0000a4c8       ??_C@_1M@BNFIGBKG@?$AAe?$AAn?$AA?9?$AAg?$AAb?$AA?$AA@ 000000018003f4c8     libucrt:lcidtoname_downlevel.obj
 0002:0000a4d8       ??_C@_1M@LKIFDIGP@?$AAe?$AAn?$AA?9?$AAi?$AAe?$AA?$AA@ 000000018003f4d8     libucrt:lcidtoname_downlevel.obj
 0002:0000a4e8       ??_C@_1M@PJKFGCCO@?$AAe?$AAn?$AA?9?$AAj?$AAm?$AA?$AA@ 000000018003f4e8     libucrt:lcidtoname_downlevel.obj
 0002:0000a4f8       ??_C@_1M@KPPKEPBO@?$AAe?$AAn?$AA?9?$AAn?$AAz?$AA?$AA@ 000000018003f4f8     libucrt:lcidtoname_downlevel.obj
 0002:0000a508       ??_C@_1M@GMDGLDOB@?$AAe?$AAn?$AA?9?$AAp?$AAh?$AA?$AA@ 000000018003f508     libucrt:lcidtoname_downlevel.obj
 0002:0000a518       ??_C@_1M@ONGIBJNA@?$AAe?$AAn?$AA?9?$AAt?$AAt?$AA?$AA@ 000000018003f518     libucrt:lcidtoname_downlevel.obj
 0002:0000a528       ??_C@_1M@LLODPCMM@?$AAe?$AAn?$AA?9?$AAu?$AAs?$AA?$AA@ 000000018003f528     libucrt:lcidtoname_downlevel.obj
 0002:0000a538       ??_C@_1M@LAKFNPAN@?$AAe?$AAn?$AA?9?$AAz?$AAa?$AA?$AA@ 000000018003f538     libucrt:lcidtoname_downlevel.obj
 0002:0000a548       ??_C@_1M@MFNHNHEO@?$AAe?$AAn?$AA?9?$AAz?$AAw?$AA?$AA@ 000000018003f548     libucrt:lcidtoname_downlevel.obj
 0002:0000a558       ??_C@_1M@EJEINPHM@?$AAe?$AAs?$AA?9?$AAa?$AAr?$AA?$AA@ 000000018003f558     libucrt:lcidtoname_downlevel.obj
 0002:0000a568       ??_C@_1M@GNKPCCJA@?$AAe?$AAs?$AA?9?$AAb?$AAo?$AA?$AA@ 000000018003f568     libucrt:lcidtoname_downlevel.obj
 0002:0000a578       ??_C@_1M@LEEGFONL@?$AAe?$AAs?$AA?9?$AAc?$AAl?$AA?$AA@ 000000018003f578     libucrt:lcidtoname_downlevel.obj
 0002:0000a588       ??_C@_1M@KGPDPBDF@?$AAe?$AAs?$AA?9?$AAc?$AAo?$AA?$AA@ 000000018003f588     libucrt:lcidtoname_downlevel.obj
 0002:0000a598       ??_C@_1M@EIAHOHH@?$AAe?$AAs?$AA?9?$AAc?$AAr?$AA?$AA@ 000000018003f598     libucrt:lcidtoname_downlevel.obj
 0002:0000a5a8       ??_C@_1M@LLPGMBIN@?$AAe?$AAs?$AA?9?$AAd?$AAo?$AA?$AA@ 000000018003f5a8     libucrt:lcidtoname_downlevel.obj
 0002:0000a5b8       ??_C@_1M@DKHMKNJA@?$AAe?$AAs?$AA?9?$AAe?$AAc?$AA?$AA@ 000000018003f5b8     libucrt:lcidtoname_downlevel.obj
 0002:0000a5c8       ??_C@_1M@GKGFPKAP@?$AAe?$AAs?$AA?9?$AAe?$AAs?$AA?$AA@ 000000018003f5c8     libucrt:lcidtoname_downlevel.obj
 0002:0000a5d8       ??_C@_1M@LKHKGDLN@?$AAe?$AAs?$AA?9?$AAg?$AAt?$AA?$AA@ 000000018003f5d8     libucrt:lcidtoname_downlevel.obj
 0002:0000a5e8       ??_C@_1M@HEIIGGJD@?$AAe?$AAs?$AA?9?$AAh?$AAn?$AA?$AA@ 000000018003f5e8     libucrt:lcidtoname_downlevel.obj
 0002:0000a5f8       ??_C@_1M@FBDHPPGD@?$AAe?$AAs?$AA?9?$AAm?$AAx?$AA?$AA@ 000000018003f5f8     libucrt:lcidtoname_downlevel.obj
 0002:0000a608       ??_C@_1M@DPAGLNDH@?$AAe?$AAs?$AA?9?$AAn?$AAi?$AA?$AA@ 000000018003f608     libucrt:lcidtoname_downlevel.obj
 0002:0000a618       ??_C@_1M@MDGOPGDD@?$AAe?$AAs?$AA?9?$AAp?$AAa?$AA?$AA@ 000000018003f618     libucrt:lcidtoname_downlevel.obj
 0002:0000a628       ??_C@_1M@EMAMGBGE@?$AAe?$AAs?$AA?9?$AAp?$AAe?$AA?$AA@ 000000018003f628     libucrt:lcidtoname_downlevel.obj
 0002:0000a638       ??_C@_1M@IBMCAOEC@?$AAe?$AAs?$AA?9?$AAp?$AAr?$AA?$AA@ 000000018003f638     libucrt:lcidtoname_downlevel.obj
 0002:0000a648       ??_C@_1M@FGMDIJED@?$AAe?$AAs?$AA?9?$AAp?$AAy?$AA?$AA@ 000000018003f648     libucrt:lcidtoname_downlevel.obj
 0002:0000a658       ??_C@_1M@IIDEOLLL@?$AAe?$AAs?$AA?9?$AAs?$AAv?$AA?$AA@ 000000018003f658     libucrt:lcidtoname_downlevel.obj
 0002:0000a668       ??_C@_1M@GAOBIPA@?$AAe?$AAs?$AA?9?$AAu?$AAy?$AA?$AA@ 000000018003f668     libucrt:lcidtoname_downlevel.obj
 0002:0000a678       ??_C@_1M@JKFFICHJ@?$AAe?$AAs?$AA?9?$AAv?$AAe?$AA?$AA@ 000000018003f678     libucrt:lcidtoname_downlevel.obj
 0002:0000a688       ??_C@_1M@PNMLOJDF@?$AAe?$AAt?$AA?9?$AAe?$AAe?$AA?$AA@ 000000018003f688     libucrt:lcidtoname_downlevel.obj
 0002:0000a698       ??_C@_1M@GHHLIKEI@?$AAe?$AAu?$AA?9?$AAe?$AAs?$AA?$AA@ 000000018003f698     libucrt:lcidtoname_downlevel.obj
 0002:0000a6a8       ??_C@_1M@PBNONODE@?$AAf?$AAa?$AA?9?$AAi?$AAr?$AA?$AA@ 000000018003f6a8     libucrt:lcidtoname_downlevel.obj
 0002:0000a6b8       ??_C@_1M@JEEHPMIL@?$AAf?$AAi?$AA?9?$AAf?$AAi?$AA?$AA@ 000000018003f6b8     libucrt:lcidtoname_downlevel.obj
 0002:0000a6c8       ??_C@_1M@LMDCNDBA@?$AAf?$AAo?$AA?9?$AAf?$AAo?$AA?$AA@ 000000018003f6c8     libucrt:lcidtoname_downlevel.obj
 0002:0000a6d8       ??_C@_1M@JKEOHLDK@?$AAf?$AAr?$AA?9?$AAb?$AAe?$AA?$AA@ 000000018003f6d8     libucrt:lcidtoname_downlevel.obj
 0002:0000a6e8       ??_C@_1M@NOHADPMI@?$AAf?$AAr?$AA?9?$AAc?$AAa?$AA?$AA@ 000000018003f6e8     libucrt:lcidtoname_downlevel.obj
 0002:0000a6f8       ??_C@_1M@KDHIHAEC@?$AAf?$AAr?$AA?9?$AAc?$AAh?$AA?$AA@ 000000018003f6f8     libucrt:lcidtoname_downlevel.obj
 0002:0000a708       ??_C@_1M@MMBBFGAK@?$AAf?$AAr?$AA?9?$AAf?$AAr?$AA?$AA@ 000000018003f708     libucrt:lcidtoname_downlevel.obj
 0002:0000a718       ??_C@_1M@PAFNENNF@?$AAf?$AAr?$AA?9?$AAl?$AAu?$AA?$AA@ 000000018003f718     libucrt:lcidtoname_downlevel.obj
 0002:0000a728       ??_C@_1M@EOHDJGDD@?$AAf?$AAr?$AA?9?$AAm?$AAc?$AA?$AA@ 000000018003f728     libucrt:lcidtoname_downlevel.obj
 0002:0000a738       ??_C@_1M@FAPLLOPF@?$AAg?$AAl?$AA?9?$AAe?$AAs?$AA?$AA@ 000000018003f738     libucrt:lcidtoname_downlevel.obj
 0002:0000a748       ??_C@_1M@FOPBFLOO@?$AAg?$AAu?$AA?9?$AAi?$AAn?$AA?$AA@ 000000018003f748     libucrt:lcidtoname_downlevel.obj
 0002:0000a758       ??_C@_1M@KBMCINPM@?$AAh?$AAe?$AA?9?$AAi?$AAl?$AA?$AA@ 000000018003f758     libucrt:lcidtoname_downlevel.obj
 0002:0000a768       ??_C@_1M@BBPHKFPJ@?$AAh?$AAi?$AA?9?$AAi?$AAn?$AA?$AA@ 000000018003f768     libucrt:lcidtoname_downlevel.obj
 0002:0000a778       ??_C@_1M@PMBNDPHD@?$AAh?$AAr?$AA?9?$AAb?$AAa?$AA?$AA@ 000000018003f778     libucrt:lcidtoname_downlevel.obj
 0002:0000a788       ??_C@_1M@BPCKOEGE@?$AAh?$AAr?$AA?9?$AAh?$AAr?$AA?$AA@ 000000018003f788     libucrt:lcidtoname_downlevel.obj
 0002:0000a798       ??_C@_1M@GACBMHKE@?$AAh?$AAu?$AA?9?$AAh?$AAu?$AA?$AA@ 000000018003f798     libucrt:lcidtoname_downlevel.obj
 0002:0000a7a8       ??_C@_1M@MILPAJJC@?$AAh?$AAy?$AA?9?$AAa?$AAm?$AA?$AA@ 000000018003f7a8     libucrt:lcidtoname_downlevel.obj
 0002:0000a7b8       ??_C@_1M@BABBICEC@?$AAi?$AAd?$AA?9?$AAi?$AAd?$AA?$AA@ 000000018003f7b8     libucrt:lcidtoname_downlevel.obj
 0002:0000a7c8       ??_C@_1M@BIKNHHPF@?$AAi?$AAs?$AA?9?$AAi?$AAs?$AA?$AA@ 000000018003f7c8     libucrt:lcidtoname_downlevel.obj
 0002:0000a7d8       ??_C@_1M@NMPCJPHE@?$AAi?$AAt?$AA?9?$AAc?$AAh?$AA?$AA@ 000000018003f7d8     libucrt:lcidtoname_downlevel.obj
 0002:0000a7e8       ??_C@_1M@GHKGFEDF@?$AAi?$AAt?$AA?9?$AAi?$AAt?$AA?$AA@ 000000018003f7e8     libucrt:lcidtoname_downlevel.obj
 0002:0000a7f8       ??_C@_1M@NIEJCJJA@?$AAj?$AAa?$AA?9?$AAj?$AAp?$AA?$AA@ 000000018003f7f8     libucrt:lcidtoname_downlevel.obj
 0002:0000a808       ??_C@_1M@JILFNBIM@?$AAk?$AAa?$AA?9?$AAg?$AAe?$AA?$AA@ 000000018003f808     libucrt:lcidtoname_downlevel.obj
 0002:0000a818       ??_C@_1M@PACPMGPH@?$AAk?$AAk?$AA?9?$AAk?$AAz?$AA?$AA@ 000000018003f818     libucrt:lcidtoname_downlevel.obj
 0002:0000a828       ??_C@_1M@IELFGMHA@?$AAk?$AAn?$AA?9?$AAi?$AAn?$AA?$AA@ 000000018003f828     libucrt:lcidtoname_downlevel.obj
 0002:0000a838       ??_C@_1O@IBBJHCH@?$AAk?$AAo?$AAk?$AA?9?$AAi?$AAn?$AA?$AA@ 000000018003f838     libucrt:lcidtoname_downlevel.obj
 0002:0000a848       ??_C@_1M@DMHAEOGC@?$AAk?$AAo?$AA?9?$AAk?$AAr?$AA?$AA@ 000000018003f848     libucrt:lcidtoname_downlevel.obj
 0002:0000a858       ??_C@_1M@HBAHBIGA@?$AAk?$AAy?$AA?9?$AAk?$AAg?$AA?$AA@ 000000018003f858     libucrt:lcidtoname_downlevel.obj
 0002:0000a868       ??_C@_1M@KPMILCJG@?$AAl?$AAt?$AA?9?$AAl?$AAt?$AA?$AA@ 000000018003f868     libucrt:lcidtoname_downlevel.obj
 0002:0000a878       ??_C@_1M@BDEKKCA@?$AAl?$AAv?$AA?9?$AAl?$AAv?$AA?$AA@ 000000018003f878     libucrt:lcidtoname_downlevel.obj
 0002:0000a888       ??_C@_1M@ELCKCCJJ@?$AAm?$AAi?$AA?9?$AAn?$AAz?$AA?$AA@ 000000018003f888     libucrt:lcidtoname_downlevel.obj
 0002:0000a898       ??_C@_1M@CBOOLAPA@?$AAm?$AAk?$AA?9?$AAm?$AAk?$AA?$AA@ 000000018003f898     libucrt:lcidtoname_downlevel.obj
 0002:0000a8a8       ??_C@_1M@GPHNBJKN@?$AAm?$AAl?$AA?9?$AAi?$AAn?$AA?$AA@ 000000018003f8a8     libucrt:lcidtoname_downlevel.obj
 0002:0000a8b8       ??_C@_1M@PABJILIG@?$AAm?$AAn?$AA?9?$AAm?$AAn?$AA?$AA@ 000000018003f8b8     libucrt:lcidtoname_downlevel.obj
 0002:0000a8c8       ??_C@_1M@FGBKKIPG@?$AAm?$AAr?$AA?9?$AAi?$AAn?$AA?$AA@ 000000018003f8c8     libucrt:lcidtoname_downlevel.obj
 0002:0000a8d8       ??_C@_1M@NDBPDDAL@?$AAm?$AAs?$AA?9?$AAb?$AAn?$AA?$AA@ 000000018003f8d8     libucrt:lcidtoname_downlevel.obj
 0002:0000a8e8       ??_C@_1M@OPIHOOPI@?$AAm?$AAs?$AA?9?$AAm?$AAy?$AA?$AA@ 000000018003f8e8     libucrt:lcidtoname_downlevel.obj
 0002:0000a8f8       ??_C@_1M@PPDBCNFM@?$AAm?$AAt?$AA?9?$AAm?$AAt?$AA?$AA@ 000000018003f8f8     libucrt:lcidtoname_downlevel.obj
 0002:0000a908       ??_C@_1M@KDJDKMDD@?$AAn?$AAb?$AA?9?$AAn?$AAo?$AA?$AA@ 000000018003f908     libucrt:lcidtoname_downlevel.obj
 0002:0000a918       ??_C@_1M@KFCFLMJP@?$AAn?$AAl?$AA?9?$AAb?$AAe?$AA?$AA@ 000000018003f918     libucrt:lcidtoname_downlevel.obj
 0002:0000a928       ??_C@_1M@KPOPDDGO@?$AAn?$AAl?$AA?9?$AAn?$AAl?$AA?$AA@ 000000018003f928     libucrt:lcidtoname_downlevel.obj
 0002:0000a938       ??_C@_1M@LJKPEMLN@?$AAn?$AAn?$AA?9?$AAn?$AAo?$AA?$AA@ 000000018003f938     libucrt:lcidtoname_downlevel.obj
 0002:0000a948       ??_C@_1M@BDGHHBFL@?$AAn?$AAs?$AA?9?$AAz?$AAa?$AA?$AA@ 000000018003f948     libucrt:lcidtoname_downlevel.obj
 0002:0000a958       ??_C@_1M@IDEHOAP@?$AAp?$AAa?$AA?9?$AAi?$AAn?$AA?$AA@ 000000018003f958     libucrt:lcidtoname_downlevel.obj
 0002:0000a968       ??_C@_1M@HDBKGOGH@?$AAp?$AAl?$AA?9?$AAp?$AAl?$AA?$AA@ 000000018003f968     libucrt:lcidtoname_downlevel.obj
 0002:0000a978       ??_C@_1M@LJLLCMEH@?$AAp?$AAt?$AA?9?$AAb?$AAr?$AA?$AA@ 000000018003f978     libucrt:lcidtoname_downlevel.obj
 0002:0000a988       ??_C@_1M@NCMONAAL@?$AAp?$AAt?$AA?9?$AAp?$AAt?$AA?$AA@ 000000018003f988     libucrt:lcidtoname_downlevel.obj
 0002:0000a998       ??_C@_1O@EAKMAJDN@?$AAq?$AAu?$AAz?$AA?9?$AAb?$AAo?$AA?$AA@ 000000018003f998     libucrt:lcidtoname_downlevel.obj
 0002:0000a9a8       ??_C@_1O@BHHPIGDN@?$AAq?$AAu?$AAz?$AA?9?$AAe?$AAc?$AA?$AA@ 000000018003f9a8     libucrt:lcidtoname_downlevel.obj
 0002:0000a9b8       ??_C@_1O@GBAPEKMJ@?$AAq?$AAu?$AAz?$AA?9?$AAp?$AAe?$AA?$AA@ 000000018003f9b8     libucrt:lcidtoname_downlevel.obj
 0002:0000a9c8       ??_C@_1M@CLGLEFBO@?$AAr?$AAo?$AA?9?$AAr?$AAo?$AA?$AA@ 000000018003f9c8     libucrt:lcidtoname_downlevel.obj
 0002:0000a9d8       ??_C@_1M@CEEDODME@?$AAr?$AAu?$AA?9?$AAr?$AAu?$AA?$AA@ 000000018003f9d8     libucrt:lcidtoname_downlevel.obj
 0002:0000a9e8       ??_C@_1M@HPKKKMPP@?$AAs?$AAa?$AA?9?$AAi?$AAn?$AA?$AA@ 000000018003f9e8     libucrt:lcidtoname_downlevel.obj
 0002:0000a9f8       ??_C@_1M@BKMAIGOJ@?$AAs?$AAe?$AA?9?$AAf?$AAi?$AA?$AA@ 000000018003f9f8     libucrt:lcidtoname_downlevel.obj
 0002:0000aa08       ??_C@_1M@NDPIFLFI@?$AAs?$AAe?$AA?9?$AAn?$AAo?$AA?$AA@ 000000018003fa08     libucrt:lcidtoname_downlevel.obj
 0002:0000aa18       ??_C@_1M@DANKKHJ@?$AAs?$AAe?$AA?9?$AAs?$AAe?$AA?$AA@ 000000018003fa18     libucrt:lcidtoname_downlevel.obj
 0002:0000aa28       ??_C@_1M@PNBLONPJ@?$AAs?$AAk?$AA?9?$AAs?$AAk?$AA?$AA@ 000000018003fa28     libucrt:lcidtoname_downlevel.obj
 0002:0000aa38       ??_C@_1M@LFMODOAL@?$AAs?$AAl?$AA?9?$AAs?$AAi?$AA?$AA@ 000000018003fa38     libucrt:lcidtoname_downlevel.obj
 0002:0000aa48       ??_C@_1O@DFKOMPG@?$AAs?$AAm?$AAa?$AA?9?$AAn?$AAo?$AA?$AA@ 000000018003fa48     libucrt:lcidtoname_downlevel.obj
 0002:0000aa58       ??_C@_1O@NDKPBNNH@?$AAs?$AAm?$AAa?$AA?9?$AAs?$AAe?$AA?$AA@ 000000018003fa58     libucrt:lcidtoname_downlevel.obj
 0002:0000aa68       ??_C@_1O@PLLKBHAB@?$AAs?$AAm?$AAj?$AA?9?$AAn?$AAo?$AA?$AA@ 000000018003fa68     libucrt:lcidtoname_downlevel.obj
 0002:0000aa78       ??_C@_1O@CLEPOGCA@?$AAs?$AAm?$AAj?$AA?9?$AAs?$AAe?$AA?$AA@ 000000018003fa78     libucrt:lcidtoname_downlevel.obj
 0002:0000aa88       ??_C@_1O@DLGJGKMK@?$AAs?$AAm?$AAn?$AA?9?$AAf?$AAi?$AA?$AA@ 000000018003fa88     libucrt:lcidtoname_downlevel.obj
 0002:0000aa98       ??_C@_1O@OJDJGAJC@?$AAs?$AAm?$AAs?$AA?9?$AAf?$AAi?$AA?$AA@ 000000018003fa98     libucrt:lcidtoname_downlevel.obj
 0002:0000aaa8       ??_C@_1M@BOFOGHPB@?$AAs?$AAq?$AA?9?$AAa?$AAl?$AA?$AA@ 000000018003faa8     libucrt:lcidtoname_downlevel.obj
 0002:0000aab8       ??_C@_1BG@LJBBIPGB@?$AAs?$AAr?$AA?9?$AAb?$AAa?$AA?9?$AAc?$AAy?$AAr?$AAl?$AA?$AA@ 000000018003fab8     libucrt:lcidtoname_downlevel.obj
 0002:0000aad0       ??_C@_1BG@JLBENFOE@?$AAs?$AAr?$AA?9?$AAb?$AAa?$AA?9?$AAl?$AAa?$AAt?$AAn?$AA?$AA@ 000000018003fad0     libucrt:lcidtoname_downlevel.obj
 0002:0000aae8       ??_C@_1BG@KODPNHE@?$AAs?$AAr?$AA?9?$AAs?$AAp?$AA?9?$AAc?$AAy?$AAr?$AAl?$AA?$AA@ 000000018003fae8     libucrt:lcidtoname_downlevel.obj
 0002:0000ab00       ??_C@_1BG@CIOGKHPB@?$AAs?$AAr?$AA?9?$AAs?$AAp?$AA?9?$AAl?$AAa?$AAt?$AAn?$AA?$AA@ 000000018003fb00     libucrt:lcidtoname_downlevel.obj
 0002:0000ab18       ??_C@_1M@NGFJLMAC@?$AAs?$AAv?$AA?9?$AAf?$AAi?$AA?$AA@ 000000018003fb18     libucrt:lcidtoname_downlevel.obj
 0002:0000ab28       ??_C@_1M@MPJEJAJC@?$AAs?$AAv?$AA?9?$AAs?$AAe?$AA?$AA@ 000000018003fb28     libucrt:lcidtoname_downlevel.obj
 0002:0000ab38       ??_C@_1M@MPNDHLFK@?$AAs?$AAw?$AA?9?$AAk?$AAe?$AA?$AA@ 000000018003fb38     libucrt:lcidtoname_downlevel.obj
 0002:0000ab48       ??_C@_1O@KOHBJJI@?$AAs?$AAy?$AAr?$AA?9?$AAs?$AAy?$AA?$AA@ 000000018003fb48     libucrt:lcidtoname_downlevel.obj
 0002:0000ab58       ??_C@_1M@LDCEFHA@?$AAt?$AAa?$AA?9?$AAi?$AAn?$AA?$AA@ 000000018003fb58     libucrt:lcidtoname_downlevel.obj
 0002:0000ab68       ??_C@_1M@CNJOFAK@?$AAt?$AAe?$AA?9?$AAi?$AAn?$AA?$AA@ 000000018003fb68     libucrt:lcidtoname_downlevel.obj
 0002:0000ab78       ??_C@_1M@GNAECACD@?$AAt?$AAh?$AA?9?$AAt?$AAh?$AA?$AA@ 000000018003fb78     libucrt:lcidtoname_downlevel.obj
 0002:0000ab88       ??_C@_1M@CHBIHOJO@?$AAt?$AAn?$AA?9?$AAz?$AAa?$AA?$AA@ 000000018003fb88     libucrt:lcidtoname_downlevel.obj
 0002:0000ab98       ??_C@_1M@GCCMIGPJ@?$AAt?$AAr?$AA?9?$AAt?$AAr?$AA?$AA@ 000000018003fb98     libucrt:lcidtoname_downlevel.obj
 0002:0000aba8       ??_C@_1M@CELMCNBK@?$AAt?$AAt?$AA?9?$AAr?$AAu?$AA?$AA@ 000000018003fba8     libucrt:lcidtoname_downlevel.obj
 0002:0000abb8       ??_C@_1M@KLMCELGA@?$AAu?$AAk?$AA?9?$AAu?$AAa?$AA?$AA@ 000000018003fbb8     libucrt:lcidtoname_downlevel.obj
 0002:0000abc8       ??_C@_1M@EPAJJAJF@?$AAu?$AAr?$AA?9?$AAp?$AAk?$AA?$AA@ 000000018003fbc8     libucrt:lcidtoname_downlevel.obj
 0002:0000abd8       ??_C@_1BG@GEGPMCDJ@?$AAu?$AAz?$AA?9?$AAu?$AAz?$AA?9?$AAc?$AAy?$AAr?$AAl?$AA?$AA@ 000000018003fbd8     libucrt:lcidtoname_downlevel.obj
 0002:0000abf0       ??_C@_1BG@EGGKJILM@?$AAu?$AAz?$AA?9?$AAu?$AAz?$AA?9?$AAl?$AAa?$AAt?$AAn?$AA?$AA@ 000000018003fbf0     libucrt:lcidtoname_downlevel.obj
 0002:0000ac08       ??_C@_1M@GFOCLFF@?$AAv?$AAi?$AA?9?$AAv?$AAn?$AA?$AA@ 000000018003fc08     libucrt:lcidtoname_downlevel.obj
 0002:0000ac18       ??_C@_1M@CPAMEDFI@?$AAx?$AAh?$AA?9?$AAz?$AAa?$AA?$AA@ 000000018003fc18     libucrt:lcidtoname_downlevel.obj
 0002:0000ac28       ??_C@_1O@EBKIFIGN@?$AAz?$AAh?$AA?9?$AAc?$AAh?$AAs?$AA?$AA@ 000000018003fc28     libucrt:lcidtoname_downlevel.obj
 0002:0000ac38       ??_C@_1O@NMHPGANE@?$AAz?$AAh?$AA?9?$AAc?$AAh?$AAt?$AA?$AA@ 000000018003fc38     libucrt:lcidtoname_downlevel.obj
 0002:0000ac48       ??_C@_1M@LPINJOMC@?$AAz?$AAh?$AA?9?$AAc?$AAn?$AA?$AA@ 000000018003fc48     libucrt:lcidtoname_downlevel.obj
 0002:0000ac58       ??_C@_1M@OCJEJODD@?$AAz?$AAh?$AA?9?$AAh?$AAk?$AA?$AA@ 000000018003fc58     libucrt:lcidtoname_downlevel.obj
 0002:0000ac68       ??_C@_1M@DNDLJINH@?$AAz?$AAh?$AA?9?$AAm?$AAo?$AA?$AA@ 000000018003fc68     libucrt:lcidtoname_downlevel.obj
 0002:0000ac78       ??_C@_1M@MBFDNDND@?$AAz?$AAh?$AA?9?$AAs?$AAg?$AA?$AA@ 000000018003fc78     libucrt:lcidtoname_downlevel.obj
 0002:0000ac88       ??_C@_1M@IMEPLEPE@?$AAz?$AAh?$AA?9?$AAt?$AAw?$AA?$AA@ 000000018003fc88     libucrt:lcidtoname_downlevel.obj
 0002:0000ac98       ??_C@_1M@BBGHNHJP@?$AAz?$AAu?$AA?9?$AAz?$AAa?$AA?$AA@ 000000018003fc98     libucrt:lcidtoname_downlevel.obj
 0002:0000baf0       ??_C@_15EMKDOKLE@?$AAa?$AAr?$AA?$AA@ 0000000180040af0     libucrt:lcidtoname_downlevel.obj
 0002:0000baf8       ??_C@_15KNPADPLH@?$AAb?$AAg?$AA?$AA@ 0000000180040af8     libucrt:lcidtoname_downlevel.obj
 0002:0000bb00       ??_C@_15EDMHLDMO@?$AAc?$AAa?$AA?$AA@ 0000000180040b00     libucrt:lcidtoname_downlevel.obj
 0002:0000bb08       ??_C@_1O@BPEAJADD@?$AAz?$AAh?$AA?9?$AAC?$AAH?$AAS?$AA?$AA@ 0000000180040b08     libucrt:lcidtoname_downlevel.obj
 0002:0000bb18       ??_C@_15LJNHCMNK@?$AAc?$AAs?$AA?$AA@ 0000000180040b18     libucrt:lcidtoname_downlevel.obj
 0002:0000bb20       ??_C@_15FOMCIDHG@?$AAd?$AAa?$AA?$AA@ 0000000180040b20     libucrt:lcidtoname_downlevel.obj
 0002:0000bb28       ??_C@_15NBKABECB@?$AAd?$AAe?$AA?$AA@ 0000000180040b28     libucrt:lcidtoname_downlevel.obj
 0002:0000bb30       ??_C@_15GHPEIIAO@?$AAe?$AAl?$AA?$AA@ 0000000180040b30     libucrt:lcidtoname_downlevel.obj
 0002:0000bb38       ??_C@_15MNPNEAIF@?$AAe?$AAn?$AA?$AA@ 0000000180040b38     libucrt:lcidtoname_downlevel.obj
 0002:0000bb40       ??_C@_15GPIOMPMH@?$AAe?$AAs?$AA?$AA@ 0000000180040b40     libucrt:lcidtoname_downlevel.obj
 0002:0000bb48       ??_C@_15NGLOAKJC@?$AAf?$AAi?$AA?$AA@ 0000000180040b48     libucrt:lcidtoname_downlevel.obj
 0002:0000bb50       ??_C@_15FBKGNKAM@?$AAf?$AAr?$AA?$AA@ 0000000180040b50     libucrt:lcidtoname_downlevel.obj
 0002:0000bb58       ??_C@_15KGGCNEFK@?$AAh?$AAe?$AA?$AA@ 0000000180040b58     libucrt:lcidtoname_downlevel.obj
 0002:0000bb60       ??_C@_15PGHLIDMF@?$AAh?$AAu?$AA?$AA@ 0000000180040b60     libucrt:lcidtoname_downlevel.obj
 0002:0000bb68       ??_C@_15BIEMAPLM@?$AAi?$AAs?$AA?$AA@ 0000000180040b68     libucrt:lcidtoname_downlevel.obj
 0002:0000bb70       ??_C@_15IFJLDHAF@?$AAi?$AAt?$AA?$AA@ 0000000180040b70     libucrt:lcidtoname_downlevel.obj
 0002:0000bb78       ??_C@_15GEMIOCAG@?$AAj?$AAa?$AA?$AA@ 0000000180040b78     libucrt:lcidtoname_downlevel.obj
 0002:0000bb80       ??_C@_15EPELEGJA@?$AAk?$AAo?$AA?$AA@ 0000000180040b80     libucrt:lcidtoname_downlevel.obj
 0002:0000bb88       ??_C@_15NDDHIMN@?$AAn?$AAl?$AA?$AA@ 0000000180040b88     libucrt:lcidtoname_downlevel.obj
 0002:0000bb90       ??_C@_15BPIGNHCD@?$AAn?$AAo?$AA?$AA@ 0000000180040b90     libucrt:lcidtoname_downlevel.obj
 0002:0000bb98       ??_C@_15DEOPBLCG@?$AAp?$AAl?$AA?$AA@ 0000000180040b98     libucrt:lcidtoname_downlevel.obj
 0002:0000bba0       ??_C@_15KBECGEFG@?$AAp?$AAt?$AA?$AA@ 0000000180040ba0     libucrt:lcidtoname_downlevel.obj
 0002:0000bba8       ??_C@_15GLJCBFMD@?$AAr?$AAo?$AA?$AA@ 0000000180040ba8     libucrt:lcidtoname_downlevel.obj
 0002:0000bbb0       ??_C@_15FEDGKCDI@?$AAr?$AAu?$AA?$AA@ 0000000180040bb0     libucrt:lcidtoname_downlevel.obj
 0002:0000bbb8       ??_C@_15GLKMLLHM@?$AAh?$AAr?$AA?$AA@ 0000000180040bb8     libucrt:lcidtoname_downlevel.obj
 0002:0000bbc0       ??_C@_15CPKMFBDB@?$AAs?$AAk?$AA?$AA@ 0000000180040bc0     libucrt:lcidtoname_downlevel.obj
 0002:0000bbc8       ??_C@_15BAAIOGMK@?$AAs?$AAq?$AA?$AA@ 0000000180040bc8     libucrt:lcidtoname_downlevel.obj
 0002:0000bbd0       ??_C@_15INNPNOHD@?$AAs?$AAv?$AA?$AA@ 0000000180040bd0     libucrt:lcidtoname_downlevel.obj
 0002:0000bbd8       ??_C@_15CABMMOGH@?$AAt?$AAh?$AA?$AA@ 0000000180040bd8     libucrt:lcidtoname_downlevel.obj
 0002:0000bbe0       ??_C@_15BPLIHJJM@?$AAt?$AAr?$AA?$AA@ 0000000180040be0     libucrt:lcidtoname_downlevel.obj
 0002:0000bbe8       ??_C@_15NEOEKKDJ@?$AAu?$AAr?$AA?$AA@ 0000000180040be8     libucrt:lcidtoname_downlevel.obj
 0002:0000bbf0       ??_C@_15NFICGAJK@?$AAi?$AAd?$AA?$AA@ 0000000180040bf0     libucrt:lcidtoname_downlevel.obj
 0002:0000bbf8       ??_C@_15PJPFLCCM@?$AAu?$AAk?$AA?$AA@ 0000000180040bf8     libucrt:lcidtoname_downlevel.obj
 0002:0000bc00       ??_C@_15HPJPHDM@?$AAb?$AAe?$AA?$AA@ 0000000180040c00     libucrt:lcidtoname_downlevel.obj
 0002:0000bc08       ??_C@_15LCHLGJII@?$AAs?$AAl?$AA?$AA@ 0000000180040c08     libucrt:lcidtoname_downlevel.obj
 0002:0000bc10       ??_C@_15PCFJPHHO@?$AAe?$AAt?$AA?$AA@ 0000000180040c10     libucrt:lcidtoname_downlevel.obj
 0002:0000bc18       ??_C@_15HPFPGODN@?$AAl?$AAv?$AA?$AA@ 0000000180040c18     libucrt:lcidtoname_downlevel.obj
 0002:0000bc20       ??_C@_15NFFGKGLG@?$AAl?$AAt?$AA?$AA@ 0000000180040c20     libucrt:lcidtoname_downlevel.obj
 0002:0000bc28       ??_C@_15BDAKCCHN@?$AAf?$AAa?$AA?$AA@ 0000000180040c28     libucrt:lcidtoname_downlevel.obj
 0002:0000bc30       ??_C@_15NFGIAIAJ@?$AAv?$AAi?$AA?$AA@ 0000000180040c30     libucrt:lcidtoname_downlevel.obj
 0002:0000bc38       ??_C@_15LMKNDMHN@?$AAh?$AAy?$AA?$AA@ 0000000180040c38     libucrt:lcidtoname_downlevel.obj
 0002:0000bc40       ??_C@_15IJBHMCFL@?$AAa?$AAz?$AA?$AA@ 0000000180040c40     libucrt:lcidtoname_downlevel.obj
 0002:0000bc48       ??_C@_15EKOFJABL@?$AAe?$AAu?$AA?$AA@ 0000000180040c48     libucrt:lcidtoname_downlevel.obj
 0002:0000bc50       ??_C@_15BGHADCNK@?$AAm?$AAk?$AA?$AA@ 0000000180040c50     libucrt:lcidtoname_downlevel.obj
 0002:0000bc58       ??_C@_15JDNICKHM@?$AAa?$AAf?$AA?$AA@ 0000000180040c58     libucrt:lcidtoname_downlevel.obj
 0002:0000bc60       ??_C@_15KPJEDBKD@?$AAk?$AAa?$AA?$AA@ 0000000180040c60     libucrt:lcidtoname_downlevel.obj
 0002:0000bc68       ??_C@_15PDNFFFEO@?$AAf?$AAo?$AA?$AA@ 0000000180040c68     libucrt:lcidtoname_downlevel.obj
 0002:0000bc70       ??_C@_15OMLEGLOC@?$AAh?$AAi?$AA?$AA@ 0000000180040c70     libucrt:lcidtoname_downlevel.obj
 0002:0000bc78       ??_C@_15IDNNENKK@?$AAm?$AAs?$AA?$AA@ 0000000180040c78     libucrt:lcidtoname_downlevel.obj
 0002:0000bc80       ??_C@_15MACJNBMH@?$AAk?$AAk?$AA?$AA@ 0000000180040c80     libucrt:lcidtoname_downlevel.obj
 0002:0000bc88       ??_C@_15DKDJEOND@?$AAk?$AAy?$AA?$AA@ 0000000180040c88     libucrt:lcidtoname_downlevel.obj
 0002:0000bc90       ??_C@_15DFGDLJBG@?$AAs?$AAw?$AA?$AA@ 0000000180040c90     libucrt:lcidtoname_downlevel.obj
 0002:0000bc98       ??_C@_15BBFAICNG@?$AAu?$AAz?$AA?$AA@ 0000000180040c98     libucrt:lcidtoname_downlevel.obj
 0002:0000bca0       ??_C@_15DKNDCGEA@?$AAt?$AAt?$AA?$AA@ 0000000180040ca0     libucrt:lcidtoname_downlevel.obj
 0002:0000bca8       ??_C@_15MGIFMDPL@?$AAp?$AAa?$AA?$AA@ 0000000180040ca8     libucrt:lcidtoname_downlevel.obj
 0002:0000bcb0       ??_C@_15HCNDBBA@?$AAg?$AAu?$AA?$AA@ 0000000180040cb0     libucrt:lcidtoname_downlevel.obj
 0002:0000bcb8       ??_C@_15FNBEIBON@?$AAt?$AAa?$AA?$AA@ 0000000180040cb8     libucrt:lcidtoname_downlevel.obj
 0002:0000bcc0       ??_C@_15NCHGBGLK@?$AAt?$AAe?$AA?$AA@ 0000000180040cc0     libucrt:lcidtoname_downlevel.obj
 0002:0000bcc8       ??_C@_15PHPHCBPF@?$AAk?$AAn?$AA?$AA@ 0000000180040cc8     libucrt:lcidtoname_downlevel.obj
 0002:0000bcd0       ??_C@_15DLGBCKMP@?$AAm?$AAr?$AA?$AA@ 0000000180040cd0     libucrt:lcidtoname_downlevel.obj
 0002:0000bcd8       ??_C@_15EABBLBFF@?$AAs?$AAa?$AA?$AA@ 0000000180040cd8     libucrt:lcidtoname_downlevel.obj
 0002:0000bce0       ??_C@_15CBKOMCOI@?$AAm?$AAn?$AA?$AA@ 0000000180040ce0     libucrt:lcidtoname_downlevel.obj
 0002:0000bce8       ??_C@_15CKDMCJAF@?$AAg?$AAl?$AA?$AA@ 0000000180040ce8     libucrt:lcidtoname_downlevel.obj
 0002:0000bcf0       ??_C@_17CNJFBPG@?$AAk?$AAo?$AAk?$AA?$AA@ 0000000180040cf0     libucrt:lcidtoname_downlevel.obj
 0002:0000bcf8       ??_C@_17FFBJICPL@?$AAs?$AAy?$AAr?$AA?$AA@ 0000000180040cf8     libucrt:lcidtoname_downlevel.obj
 0002:0000bd00       ??_C@_17KPNDCPAF@?$AAd?$AAi?$AAv?$AA?$AA@ 0000000180040d00     libucrt:lcidtoname_downlevel.obj
 0002:0000bd08       ??_C@_11LOCGONAA@?$AA?$AA@ 0000000180040d08     libucrt:lcidtoname_downlevel.obj
 0002:0000bd10       ??_C@_1M@OKAHONE@?$AAa?$AAr?$AA?9?$AAS?$AAA?$AA?$AA@ 0000000180040d10     libucrt:lcidtoname_downlevel.obj
 0002:0000bd20       ??_C@_1M@FFFIGIGK@?$AAb?$AAg?$AA?9?$AAB?$AAG?$AA?$AA@ 0000000180040d20     libucrt:lcidtoname_downlevel.obj
 0002:0000bf80       ??_C@_1BA@BALFACEM@?$AAC?$AAO?$AAN?$AAO?$AAU?$AAT?$AA$?$AA?$AA@ 0000000180040f80     libucrt:initcon.obj
 0002:0000bf90       __log10_256_lead           0000000180040f90     libucrt:log10_256_lead_tail_table.obj
 0002:0000c7a0       __log10_256_tail           00000001800417a0     libucrt:log10_256_lead_tail_table.obj
 0002:0000cfe0       _load_config_used          0000000180041fe0     LIBCMT:loadcfg.obj
 0002:0000d378       __rtc_iaa                  0000000180042378     LIBCMT:initsect.obj
 0002:0000d380       __rtc_izz                  0000000180042380     LIBCMT:initsect.obj
 0002:0000d388       __rtc_taa                  0000000180042388     LIBCMT:initsect.obj
 0002:0000d390       __rtc_tzz                  0000000180042390     LIBCMT:initsect.obj
 0002:0000fbf0       __IMPORT_DESCRIPTOR_KERNEL32 0000000180044bf0     kernel32:KERNEL32.dll
 0002:0000fc04       __NULL_IMPORT_DESCRIPTOR   0000000180044c04     kernel32:KERNEL32.dll
 0003:000014d0       _fltused                   00000001800474d0     LIBCMT:fltused.obj
 0003:000014d4       __scrt_native_dllmain_reason 00000001800474d4     LIBCMT:utility.obj
 0003:000014d8       __security_cookie_complement 00000001800474d8     LIBCMT:gs_cookie.obj
 0003:000014e0       __security_cookie          00000001800474e0     LIBCMT:gs_cookie.obj
 0003:000014e8       __isa_available            00000001800474e8     LIBCMT:cpu_disp.obj
 0003:000014ec       __isa_enabled              00000001800474ec     LIBCMT:cpu_disp.obj
 0003:000014f0       __memcpy_nt_iters          00000001800474f0     LIBCMT:cpu_disp.obj
 0003:000014f8       __memset_nt_iters          00000001800474f8     LIBCMT:cpu_disp.obj
 0003:00001510       __abort_behavior           0000000180047510     libucrt:abort.obj
 0003:00001540       __acrt_initial_multibyte_data 0000000180047540     libucrt:mbctype.obj
 0003:00001a80       __acrt_initial_locale_data 0000000180047a80     libucrt:nlsdata.obj
 0003:00001bd8       __acrt_initial_locale_pointers 0000000180047bd8     libucrt:nlsdata.obj
 0003:00001be8       __acrt_wide_c_locale_string 0000000180047be8     libucrt:nlsdata.obj
 0003:00001bf0       _iob                       0000000180047bf0     libucrt:_file.obj
 0003:00001d00       __globallocalestatus       0000000180047d00     libucrt:glstatus.obj
 0003:00001d10       __acrt_lconv_c             0000000180047d10     libucrt:localeconv.obj
 0003:00001da8       __acrt_lconv_static_decimal 0000000180047da8     libucrt:localeconv.obj
 0003:00001dac       __acrt_lconv_static_W_decimal 0000000180047dac     libucrt:localeconv.obj
 0003:00001dd0       ?__type_info_root_node@@3U__type_info_node@@A 0000000180047dd0     LIBCMT:tncleanup.obj
 0003:00001de0       ?_OptionsStorage@?1??__local_stdio_printf_options@@9@4_KA 0000000180047de0     LIBCMT:default_local_stdio_options.obj
 0003:00001de8       ?_OptionsStorage@?1??__local_stdio_scanf_options@@9@4_KA 0000000180047de8     LIBCMT:default_local_stdio_options.obj
 0003:00001df0       __scrt_current_native_startup_state 0000000180047df0     LIBCMT:utility.obj
 0003:00001df8       __scrt_native_startup_lock 0000000180047df8     LIBCMT:utility.obj
 0003:00001e38       __scrt_debugger_hook_flag  0000000180047e38     LIBCMT:utility_desktop.obj
 0003:00001e3c       __favor                    0000000180047e3c     LIBCMT:cpu_disp.obj
 0003:00001e40       ?__WinRTOutOfMemoryExceptionCallback@@3P6APEAXXZEA 0000000180047e40     libvcruntime:ehhelpers.obj
 0003:00001e48       ?pArgList@UnDecorator@@0PEAVReplicator@@EA 0000000180047e48     libvcruntime:undname.obj
 0003:00001e50       ?pZNameList@UnDecorator@@0PEAVReplicator@@EA 0000000180047e50     libvcruntime:undname.obj
 0003:00001e58       ?pTemplateArgList@UnDecorator@@0PEAVReplicator@@EA 0000000180047e58     libvcruntime:undname.obj
 0003:00001e60       ?gName@UnDecorator@@0PEBDEB 0000000180047e60     libvcruntime:undname.obj
 0003:00001e68       ?name@UnDecorator@@0PEBDEB 0000000180047e68     libvcruntime:undname.obj
 0003:00001e70       ?disableFlags@UnDecorator@@0KA 0000000180047e70     libvcruntime:undname.obj
 0003:00001e74       ?fExplicitTemplateParams@UnDecorator@@0_NA 0000000180047e74     libvcruntime:undname.obj
 0003:00001e75       ?fGetTemplateArgumentList@UnDecorator@@0_NA 0000000180047e75     libvcruntime:undname.obj
 0003:00001e78       ?m_pGetParameter@UnDecorator@@0P6APEADJ@ZEA 0000000180047e78     libvcruntime:undname.obj
 0003:00001e80       ?m_CHPENameOffset@UnDecorator@@0KA 0000000180047e80     libvcruntime:undname.obj
 0003:00001e84       ?m_recursionLevel@UnDecorator@@0KA 0000000180047e84     libvcruntime:undname.obj
 0003:00001fa0       __pPurecall                0000000180047fa0     libvcruntime:purevirt_data.obj
 0003:00001fb8       ?c_exit_complete@?1???R<lambda_6e4b09c48022b2350581041d5f6b0c4c>@@QEBA@XZ@4_NA 0000000180047fb8     libucrt:exit.obj
 0003:000020c8       _environ_table             00000001800480c8     libucrt:environment_initialization.obj
 0003:000020d0       _wenviron_table            00000001800480d0     libucrt:environment_initialization.obj
 0003:000020d8       __dcrt_initial_wide_environment 00000001800480d8     libucrt:environment_initialization.obj
 0003:000020e0       __dcrt_initial_narrow_environment 00000001800480e0     libucrt:environment_initialization.obj
 0003:000020e8       __acrt_atexit_table        00000001800480e8     libucrt:onexit.obj
 0003:00002100       __acrt_at_quick_exit_table 0000000180048100     libucrt:onexit.obj
 0003:00002118       __fma3_is_available        0000000180048118     libucrt:fma3_available.obj
 0003:0000211c       __use_fma3_lib             000000018004811c     libucrt:fma3_available.obj
 0003:00002360       __acrt_current_multibyte_data 0000000180048360     libucrt:mbctype.obj
 0003:00002368       _mbctype                   0000000180048368     libucrt:mbctype.obj
 0003:00002370       _mbcasemap                 0000000180048370     libucrt:mbctype.obj
 0003:00002380       __argc                     0000000180048380     libucrt:argv_data.obj
 0003:00002388       __argv                     0000000180048388     libucrt:argv_data.obj
 0003:00002390       __wargv                    0000000180048390     libucrt:argv_data.obj
 0003:00002398       _acmdln                    0000000180048398     libucrt:argv_data.obj
 0003:000023a0       _wcmdln                    00000001800483a0     libucrt:argv_data.obj
 0003:000023a8       _pgmptr                    00000001800483a8     libucrt:argv_data.obj
 0003:00002560       __acrt_heap                0000000180048560     libucrt:heap_handle.obj
 0003:00002570       __pioinfo                  0000000180048570     libucrt:ioinit.obj
 0003:00002970       _nhandle                   0000000180048970     libucrt:ioinit.obj
 0003:000029a8       __acrt_current_locale_data 00000001800489a8     libucrt:nlsdata.obj
 0003:000029b0       _nstream                   00000001800489b0     libucrt:_file.obj
 0003:000029b8       __piob                     00000001800489b8     libucrt:_file.obj
 0003:000029c0       __acrt_stdout_buffer       00000001800489c0     libucrt:_sftbuf.obj
 0003:000029c8       __acrt_stderr_buffer       00000001800489c8     libucrt:_sftbuf.obj
 0003:000029d0       __acrt_locale_changed_data 00000001800489d0     libucrt:wsetlocale.obj
 0003:000029d8       __acrt_lconv_static_null   00000001800489d8     libucrt:localeconv.obj
 0003:000029dc       __acrt_lconv_static_W_null 00000001800489dc     libucrt:localeconv.obj
 0003:00002f60       __scrt_ucrt_dll_is_in_use  0000000180048f60     <common>
 0003:00002f68       __dyn_tls_init_callback    0000000180048f68     <common>

 entry point at        0001:00024824

 Static symbols

 0001:00000000       loc_bipolar_to_scale       0000000180001000 f   ringmod.o
 0001:00000060       loc_set_sample_rate        0000000180001060 f   ringmod.o
 0001:00000070       loc_get_param_name         0000000180001070 f   ringmod.o
 0001:00000090       loc_get_param_reset        0000000180001090 f   ringmod.o
 0001:000000b0       loc_get_param_value        00000001800010b0 f   ringmod.o
 0001:000000d0       loc_set_param_value        00000001800010d0 f   ringmod.o
 0001:000000f0       loc_get_mod_name           00000001800010f0 f   ringmod.o
 0001:00000110       loc_note_on                0000000180001110 f   ringmod.o
 0001:00000130       loc_set_mod_value          0000000180001130 f   ringmod.o
 0001:00000150       loc_prepare_block          0000000180001150 f   ringmod.o
 0001:000002e0       loc_process_fx_replace     00000001800012e0 f   ringmod.o
 0001:000004d0       loc_shared_new             00000001800014d0 f   ringmod.o
 0001:00000530       loc_shared_delete          0000000180001530 f   ringmod.o
 0001:00000540       loc_voice_new              0000000180001540 f   ringmod.o
 0001:00000590       loc_voice_delete           0000000180001590 f   ringmod.o
 0001:000005a0       loc_plugin_exit            00000001800015a0 f   ringmod.o
 0001:00000720       loc_get_param_name         0000000180001720 f   ws_tanh.o
 0001:00000740       loc_get_param_reset        0000000180001740 f   ws_tanh.o
 0001:00000760       loc_get_param_value        0000000180001760 f   ws_tanh.o
 0001:00000780       loc_set_param_value        0000000180001780 f   ws_tanh.o
 0001:000007a0       loc_get_mod_name           00000001800017a0 f   ws_tanh.o
 0001:000007c0       loc_note_on                00000001800017c0 f   ws_tanh.o
 0001:000007e0       loc_set_mod_value          00000001800017e0 f   ws_tanh.o
 0001:00000800       loc_prepare_block          0000000180001800 f   ws_tanh.o
 0001:000008f0       loc_process_fx_replace     00000001800018f0 f   ws_tanh.o
 0001:00000af0       loc_shared_new             0000000180001af0 f   ws_tanh.o
 0001:00000b50       loc_shared_delete          0000000180001b50 f   ws_tanh.o
 0001:00000b60       loc_voice_new              0000000180001b60 f   ws_tanh.o
 0001:00000bc0       loc_voice_delete           0000000180001bc0 f   ws_tanh.o
 0001:00000bd0       loc_plugin_exit            0000000180001bd0 f   ws_tanh.o
 0001:00000d40       loc_get_param_name         0000000180001d40 f   ws_tanh_asym.o
 0001:00000d60       loc_get_param_reset        0000000180001d60 f   ws_tanh_asym.o
 0001:00000d80       loc_get_param_value        0000000180001d80 f   ws_tanh_asym.o
 0001:00000da0       loc_set_param_value        0000000180001da0 f   ws_tanh_asym.o
 0001:00000dc0       loc_get_mod_name           0000000180001dc0 f   ws_tanh_asym.o
 0001:00000de0       loc_note_on                0000000180001de0 f   ws_tanh_asym.o
 0001:00000e00       loc_set_mod_value          0000000180001e00 f   ws_tanh_asym.o
 0001:00000e20       loc_prepare_block          0000000180001e20 f   ws_tanh_asym.o
 0001:00001030       loc_process_fx_replace     0000000180002030 f   ws_tanh_asym.o
 0001:00001280       loc_shared_new             0000000180002280 f   ws_tanh_asym.o
 0001:000012f0       loc_shared_delete          00000001800022f0 f   ws_tanh_asym.o
 0001:00001300       loc_voice_new              0000000180002300 f   ws_tanh_asym.o
 0001:00001350       loc_voice_delete           0000000180002350 f   ws_tanh_asym.o
 0001:00001360       loc_plugin_exit            0000000180002360 f   ws_tanh_asym.o
 0001:000014d0       loc_get_param_name         00000001800024d0 f   bitcrusher.o
 0001:000014f0       loc_get_param_reset        00000001800024f0 f   bitcrusher.o
 0001:00001510       loc_get_param_value        0000000180002510 f   bitcrusher.o
 0001:00001530       loc_set_param_value        0000000180002530 f   bitcrusher.o
 0001:00001550       loc_get_mod_name           0000000180002550 f   bitcrusher.o
 0001:00001570       loc_note_on                0000000180002570 f   bitcrusher.o
 0001:00001590       loc_set_mod_value          0000000180002590 f   bitcrusher.o
 0001:000015b0       loc_prepare_block          00000001800025b0 f   bitcrusher.o
 0001:000016c0       loc_process_fx_replace     00000001800026c0 f   bitcrusher.o
 0001:00001e60       loc_shared_new             0000000180002e60 f   bitcrusher.o
 0001:00001ed0       loc_shared_delete          0000000180002ed0 f   bitcrusher.o
 0001:00001ee0       loc_voice_new              0000000180002ee0 f   bitcrusher.o
 0001:00001f40       loc_voice_delete           0000000180002f40 f   bitcrusher.o
 0001:00001f50       loc_plugin_exit            0000000180002f50 f   bitcrusher.o
 0001:000020c0       loc_get_param_name         00000001800030c0 f   ws_exp.o
 0001:000020e0       loc_get_param_reset        00000001800030e0 f   ws_exp.o
 0001:00002100       loc_get_param_value        0000000180003100 f   ws_exp.o
 0001:00002120       loc_set_param_value        0000000180003120 f   ws_exp.o
 0001:00002140       loc_get_mod_name           0000000180003140 f   ws_exp.o
 0001:00002160       loc_note_on                0000000180003160 f   ws_exp.o
 0001:00002180       loc_set_mod_value          0000000180003180 f   ws_exp.o
 0001:000021a0       loc_prepare_block          00000001800031a0 f   ws_exp.o
 0001:00002310       loc_process_fx_replace     0000000180003310 f   ws_exp.o
 0001:000026c0       loc_shared_new             00000001800036c0 f   ws_exp.o
 0001:00002720       loc_shared_delete          0000000180003720 f   ws_exp.o
 0001:00002730       loc_voice_new              0000000180003730 f   ws_exp.o
 0001:00002790       loc_voice_delete           0000000180003790 f   ws_exp.o
 0001:000027a0       loc_plugin_exit            00000001800037a0 f   ws_exp.o
 0001:00002910       biquad_init                0000000180003910 f   ws_fm.o
 0001:000029e0       biquad_filter              00000001800039e0 f   ws_fm.o
 0001:00002a70       loc_get_param_name         0000000180003a70 f   ws_fm.o
 0001:00002a90       loc_get_param_reset        0000000180003a90 f   ws_fm.o
 0001:00002ab0       loc_get_param_value        0000000180003ab0 f   ws_fm.o
 0001:00002ad0       loc_set_param_value        0000000180003ad0 f   ws_fm.o
 0001:00002af0       loc_get_mod_name           0000000180003af0 f   ws_fm.o
 0001:00002b10       loc_set_sample_rate        0000000180003b10 f   ws_fm.o
 0001:00002b20       loc_note_on                0000000180003b20 f   ws_fm.o
 0001:00002b40       loc_set_mod_value          0000000180003b40 f   ws_fm.o
 0001:00002b60       loc_prepare_block          0000000180003b60 f   ws_fm.o
 0001:00002dd0       loc_process_fx_replace     0000000180003dd0 f   ws_fm.o
 0001:000033c0       loc_shared_new             00000001800043c0 f   ws_fm.o
 0001:00003430       loc_shared_delete          0000000180004430 f   ws_fm.o
 0001:00003440       loc_voice_new              0000000180004440 f   ws_fm.o
 0001:000034a0       loc_voice_delete           00000001800044a0 f   ws_fm.o
 0001:000034b0       loc_plugin_exit            00000001800044b0 f   ws_fm.o
 0001:00003630       loc_get_param_name         0000000180004630 f   resample_nearest.o
 0001:00003650       loc_get_param_reset        0000000180004650 f   resample_nearest.o
 0001:00003670       loc_get_param_value        0000000180004670 f   resample_nearest.o
 0001:00003690       loc_set_param_value        0000000180004690 f   resample_nearest.o
 0001:000036b0       loc_get_mod_name           00000001800046b0 f   resample_nearest.o
 0001:000036d0       loc_note_on                00000001800046d0 f   resample_nearest.o
 0001:000036f0       loc_set_mod_value          00000001800046f0 f   resample_nearest.o
 0001:00003710       loc_prepare_block          0000000180004710 f   resample_nearest.o
 0001:000037f0       loc_process_fx_replace     00000001800047f0 f   resample_nearest.o
 0001:00003fd0       loc_shared_new             0000000180004fd0 f   resample_nearest.o
 0001:00004030       loc_shared_delete          0000000180005030 f   resample_nearest.o
 0001:00004040       loc_voice_new              0000000180005040 f   resample_nearest.o
 0001:00004090       loc_voice_delete           0000000180005090 f   resample_nearest.o
 0001:000040a0       loc_plugin_exit            00000001800050a0 f   resample_nearest.o
 0001:00004210       loc_get_param_name         0000000180005210 f   resample_linear.o
 0001:00004230       loc_get_param_reset        0000000180005230 f   resample_linear.o
 0001:00004250       loc_get_param_value        0000000180005250 f   resample_linear.o
 0001:00004270       loc_set_param_value        0000000180005270 f   resample_linear.o
 0001:00004290       loc_get_mod_name           0000000180005290 f   resample_linear.o
 0001:000042b0       loc_note_on                00000001800052b0 f   resample_linear.o
 0001:000042d0       loc_set_mod_value          00000001800052d0 f   resample_linear.o
 0001:000042f0       loc_prepare_block          00000001800052f0 f   resample_linear.o
 0001:000043e0       loc_process_fx_replace     00000001800053e0 f   resample_linear.o
 0001:00004e30       loc_shared_new             0000000180005e30 f   resample_linear.o
 0001:00004e90       loc_shared_delete          0000000180005e90 f   resample_linear.o
 0001:00004ea0       loc_voice_new              0000000180005ea0 f   resample_linear.o
 0001:00004ef0       loc_voice_delete           0000000180005ef0 f   resample_linear.o
 0001:00004f00       loc_plugin_exit            0000000180005f00 f   resample_linear.o
 0001:00005748       $LN27                      0000000180006748     biquad.o
 0001:00005770       ?loc_set_sample_rate@@YAXPEAUst_plugin_voice_s@@M@Z 0000000180006770 f   biquad_lpf_1.o
 0001:00005780       ?loc_get_param_name@@YAPEBDPEAUst_plugin_info_s@@I@Z 0000000180006780 f   biquad_lpf_1.o
 0001:000057a0       ?loc_get_param_reset@@YAMPEAUst_plugin_info_s@@I@Z 00000001800067a0 f   biquad_lpf_1.o
 0001:000057c0       ?loc_get_param_value@@YAMPEAUst_plugin_shared_s@@I@Z 00000001800067c0 f   biquad_lpf_1.o
 0001:000057e0       ?loc_set_param_value@@YAXPEAUst_plugin_shared_s@@IM@Z 00000001800067e0 f   biquad_lpf_1.o
 0001:00005800       ?loc_get_mod_name@@YAPEBDPEAUst_plugin_info_s@@I@Z 0000000180006800 f   biquad_lpf_1.o
 0001:00005820       ?loc_note_on@@YAXPEAUst_plugin_voice_s@@HIIEMM@Z 0000000180006820 f   biquad_lpf_1.o
 0001:00005970       ?loc_set_mod_value@@YAXPEAUst_plugin_voice_s@@IMI@Z 0000000180006970 f   biquad_lpf_1.o
 0001:00005990       ?loc_prepare_block@@YAXPEAUst_plugin_voice_s@@IMMMM@Z 0000000180006990 f   biquad_lpf_1.o
 0001:00005bf0       ?loc_process_fx_replace@@YAXPEAUst_plugin_voice_s@@HPEBMPEAMI@Z 0000000180006bf0 f   biquad_lpf_1.o
 0001:00005ec0       ?loc_shared_new@@YAPEAUst_plugin_shared_s@@PEAUst_plugin_info_s@@@Z 0000000180006ec0 f   biquad_lpf_1.o
 0001:00005f30       ?loc_shared_delete@@YAXPEAUst_plugin_shared_s@@@Z 0000000180006f30 f   biquad_lpf_1.o
 0001:00005f40       ?loc_voice_new@@YAPEAUst_plugin_voice_s@@PEAUst_plugin_info_s@@@Z 0000000180006f40 f   biquad_lpf_1.o
 0001:00005f90       ?loc_voice_delete@@YAXPEAUst_plugin_voice_s@@@Z 0000000180006f90 f   biquad_lpf_1.o
 0001:00005fa0       ?loc_plugin_exit@@YAXPEAUst_plugin_info_s@@@Z 0000000180006fa0 f   biquad_lpf_1.o
 0001:00006200       ?loc_set_sample_rate@@YAXPEAUst_plugin_voice_s@@M@Z 0000000180007200 f   biquad_lpf_2.o
 0001:00006210       ?loc_get_param_name@@YAPEBDPEAUst_plugin_info_s@@I@Z 0000000180007210 f   biquad_lpf_2.o
 0001:00006230       ?loc_get_param_reset@@YAMPEAUst_plugin_info_s@@I@Z 0000000180007230 f   biquad_lpf_2.o
 0001:00006250       ?loc_get_param_value@@YAMPEAUst_plugin_shared_s@@I@Z 0000000180007250 f   biquad_lpf_2.o
 0001:00006270       ?loc_set_param_value@@YAXPEAUst_plugin_shared_s@@IM@Z 0000000180007270 f   biquad_lpf_2.o
 0001:00006290       ?loc_get_mod_name@@YAPEBDPEAUst_plugin_info_s@@I@Z 0000000180007290 f   biquad_lpf_2.o
 0001:000062b0       ?loc_note_on@@YAXPEAUst_plugin_voice_s@@HIIEMM@Z 00000001800072b0 f   biquad_lpf_2.o
 0001:00006530       ?loc_set_mod_value@@YAXPEAUst_plugin_voice_s@@IMI@Z 0000000180007530 f   biquad_lpf_2.o
 0001:00006550       ?loc_prepare_block@@YAXPEAUst_plugin_voice_s@@IMMMM@Z 0000000180007550 f   biquad_lpf_2.o
 0001:00006910       ?loc_process_fx_replace@@YAXPEAUst_plugin_voice_s@@HPEBMPEAMI@Z 0000000180007910 f   biquad_lpf_2.o
 0001:00006dc0       ?loc_shared_new@@YAPEAUst_plugin_shared_s@@PEAUst_plugin_info_s@@@Z 0000000180007dc0 f   biquad_lpf_2.o
 0001:00006e30       ?loc_shared_delete@@YAXPEAUst_plugin_shared_s@@@Z 0000000180007e30 f   biquad_lpf_2.o
 0001:00006e40       ?loc_voice_new@@YAPEAUst_plugin_voice_s@@PEAUst_plugin_info_s@@@Z 0000000180007e40 f   biquad_lpf_2.o
 0001:00006e90       ?loc_voice_delete@@YAXPEAUst_plugin_voice_s@@@Z 0000000180007e90 f   biquad_lpf_2.o
 0001:00006ea0       ?loc_plugin_exit@@YAXPEAUst_plugin_info_s@@@Z 0000000180007ea0 f   biquad_lpf_2.o
 0001:00007020       ?loc_set_sample_rate@@YAXPEAUst_plugin_voice_s@@M@Z 0000000180008020 f   biquad_lpf_3.o
 0001:00007030       ?loc_get_param_name@@YAPEBDPEAUst_plugin_info_s@@I@Z 0000000180008030 f   biquad_lpf_3.o
 0001:00007050       ?loc_get_param_reset@@YAMPEAUst_plugin_info_s@@I@Z 0000000180008050 f   biquad_lpf_3.o
 0001:00007070       ?loc_get_param_value@@YAMPEAUst_plugin_shared_s@@I@Z 0000000180008070 f   biquad_lpf_3.o
 0001:00007090       ?loc_set_param_value@@YAXPEAUst_plugin_shared_s@@IM@Z 0000000180008090 f   biquad_lpf_3.o
 0001:000070b0       ?loc_get_mod_name@@YAPEBDPEAUst_plugin_info_s@@I@Z 00000001800080b0 f   biquad_lpf_3.o
 0001:000070d0       ?loc_note_on@@YAXPEAUst_plugin_voice_s@@HIIEMM@Z 00000001800080d0 f   biquad_lpf_3.o
 0001:00007470       ?loc_set_mod_value@@YAXPEAUst_plugin_voice_s@@IMI@Z 0000000180008470 f   biquad_lpf_3.o
 0001:00007490       ?loc_prepare_block@@YAXPEAUst_plugin_voice_s@@IMMMM@Z 0000000180008490 f   biquad_lpf_3.o
 0001:00007850       ?loc_process_fx_replace@@YAXPEAUst_plugin_voice_s@@HPEBMPEAMI@Z 0000000180008850 f   biquad_lpf_3.o
 0001:00007ea0       ?loc_shared_new@@YAPEAUst_plugin_shared_s@@PEAUst_plugin_info_s@@@Z 0000000180008ea0 f   biquad_lpf_3.o
 0001:00007f10       ?loc_shared_delete@@YAXPEAUst_plugin_shared_s@@@Z 0000000180008f10 f   biquad_lpf_3.o
 0001:00007f20       ?loc_voice_new@@YAPEAUst_plugin_voice_s@@PEAUst_plugin_info_s@@@Z 0000000180008f20 f   biquad_lpf_3.o
 0001:00007f70       ?loc_voice_delete@@YAXPEAUst_plugin_voice_s@@@Z 0000000180008f70 f   biquad_lpf_3.o
 0001:00007f80       ?loc_plugin_exit@@YAXPEAUst_plugin_info_s@@@Z 0000000180008f80 f   biquad_lpf_3.o
 0001:00008100       ?loc_set_sample_rate@@YAXPEAUst_plugin_voice_s@@M@Z 0000000180009100 f   biquad_lpf_4.o
 0001:00008110       ?loc_get_param_name@@YAPEBDPEAUst_plugin_info_s@@I@Z 0000000180009110 f   biquad_lpf_4.o
 0001:00008130       ?loc_get_param_reset@@YAMPEAUst_plugin_info_s@@I@Z 0000000180009130 f   biquad_lpf_4.o
 0001:00008150       ?loc_get_param_value@@YAMPEAUst_plugin_shared_s@@I@Z 0000000180009150 f   biquad_lpf_4.o
 0001:00008170       ?loc_set_param_value@@YAXPEAUst_plugin_shared_s@@IM@Z 0000000180009170 f   biquad_lpf_4.o
 0001:00008190       ?loc_get_mod_name@@YAPEBDPEAUst_plugin_info_s@@I@Z 0000000180009190 f   biquad_lpf_4.o
 0001:000081b0       ?loc_note_on@@YAXPEAUst_plugin_voice_s@@HIIEMM@Z 00000001800091b0 f   biquad_lpf_4.o
 0001:00008670       ?loc_set_mod_value@@YAXPEAUst_plugin_voice_s@@IMI@Z 0000000180009670 f   biquad_lpf_4.o
 0001:00008690       ?loc_prepare_block@@YAXPEAUst_plugin_voice_s@@IMMMM@Z 0000000180009690 f   biquad_lpf_4.o
 0001:00008a50       ?loc_process_fx_replace@@YAXPEAUst_plugin_voice_s@@HPEBMPEAMI@Z 0000000180009a50 f   biquad_lpf_4.o
 0001:00008ed0       ?loc_shared_new@@YAPEAUst_plugin_shared_s@@PEAUst_plugin_info_s@@@Z 0000000180009ed0 f   biquad_lpf_4.o
 0001:00008f40       ?loc_shared_delete@@YAXPEAUst_plugin_shared_s@@@Z 0000000180009f40 f   biquad_lpf_4.o
 0001:00008f50       ?loc_voice_new@@YAPEAUst_plugin_voice_s@@PEAUst_plugin_info_s@@@Z 0000000180009f50 f   biquad_lpf_4.o
 0001:00008fa0       ?loc_voice_delete@@YAXPEAUst_plugin_voice_s@@@Z 0000000180009fa0 f   biquad_lpf_4.o
 0001:00008fb0       ?loc_plugin_exit@@YAXPEAUst_plugin_info_s@@@Z 0000000180009fb0 f   biquad_lpf_4.o
 0001:00009130       ?loc_set_sample_rate@@YAXPEAUst_plugin_voice_s@@M@Z 000000018000a130 f   biquad_hpf_1.o
 0001:00009140       ?loc_get_param_name@@YAPEBDPEAUst_plugin_info_s@@I@Z 000000018000a140 f   biquad_hpf_1.o
 0001:00009160       ?loc_get_param_reset@@YAMPEAUst_plugin_info_s@@I@Z 000000018000a160 f   biquad_hpf_1.o
 0001:00009180       ?loc_get_param_value@@YAMPEAUst_plugin_shared_s@@I@Z 000000018000a180 f   biquad_hpf_1.o
 0001:000091a0       ?loc_set_param_value@@YAXPEAUst_plugin_shared_s@@IM@Z 000000018000a1a0 f   biquad_hpf_1.o
 0001:000091c0       ?loc_get_mod_name@@YAPEBDPEAUst_plugin_info_s@@I@Z 000000018000a1c0 f   biquad_hpf_1.o
 0001:000091e0       ?loc_note_on@@YAXPEAUst_plugin_voice_s@@HIIEMM@Z 000000018000a1e0 f   biquad_hpf_1.o
 0001:00009330       ?loc_set_mod_value@@YAXPEAUst_plugin_voice_s@@IMI@Z 000000018000a330 f   biquad_hpf_1.o
 0001:00009350       ?loc_prepare_block@@YAXPEAUst_plugin_voice_s@@IMMMM@Z 000000018000a350 f   biquad_hpf_1.o
 0001:000095b0       ?loc_process_fx_replace@@YAXPEAUst_plugin_voice_s@@HPEBMPEAMI@Z 000000018000a5b0 f   biquad_hpf_1.o
 0001:00009880       ?loc_shared_new@@YAPEAUst_plugin_shared_s@@PEAUst_plugin_info_s@@@Z 000000018000a880 f   biquad_hpf_1.o
 0001:000098f0       ?loc_shared_delete@@YAXPEAUst_plugin_shared_s@@@Z 000000018000a8f0 f   biquad_hpf_1.o
 0001:00009900       ?loc_voice_new@@YAPEAUst_plugin_voice_s@@PEAUst_plugin_info_s@@@Z 000000018000a900 f   biquad_hpf_1.o
 0001:00009950       ?loc_voice_delete@@YAXPEAUst_plugin_voice_s@@@Z 000000018000a950 f   biquad_hpf_1.o
 0001:00009960       ?loc_plugin_exit@@YAXPEAUst_plugin_info_s@@@Z 000000018000a960 f   biquad_hpf_1.o
 0001:00009ae0       ?loc_set_sample_rate@@YAXPEAUst_plugin_voice_s@@M@Z 000000018000aae0 f   biquad_hpf_2.o
 0001:00009af0       ?loc_get_param_name@@YAPEBDPEAUst_plugin_info_s@@I@Z 000000018000aaf0 f   biquad_hpf_2.o
 0001:00009b10       ?loc_get_param_reset@@YAMPEAUst_plugin_info_s@@I@Z 000000018000ab10 f   biquad_hpf_2.o
 0001:00009b30       ?loc_get_param_value@@YAMPEAUst_plugin_shared_s@@I@Z 000000018000ab30 f   biquad_hpf_2.o
 0001:00009b50       ?loc_set_param_value@@YAXPEAUst_plugin_shared_s@@IM@Z 000000018000ab50 f   biquad_hpf_2.o
 0001:00009b70       ?loc_get_mod_name@@YAPEBDPEAUst_plugin_info_s@@I@Z 000000018000ab70 f   biquad_hpf_2.o
 0001:00009b90       ?loc_note_on@@YAXPEAUst_plugin_voice_s@@HIIEMM@Z 000000018000ab90 f   biquad_hpf_2.o
 0001:00009e10       ?loc_set_mod_value@@YAXPEAUst_plugin_voice_s@@IMI@Z 000000018000ae10 f   biquad_hpf_2.o
 0001:00009e30       ?loc_prepare_block@@YAXPEAUst_plugin_voice_s@@IMMMM@Z 000000018000ae30 f   biquad_hpf_2.o
 0001:0000a1f0       ?loc_process_fx_replace@@YAXPEAUst_plugin_voice_s@@HPEBMPEAMI@Z 000000018000b1f0 f   biquad_hpf_2.o
 0001:0000a6a0       ?loc_shared_new@@YAPEAUst_plugin_shared_s@@PEAUst_plugin_info_s@@@Z 000000018000b6a0 f   biquad_hpf_2.o
 0001:0000a710       ?loc_shared_delete@@YAXPEAUst_plugin_shared_s@@@Z 000000018000b710 f   biquad_hpf_2.o
 0001:0000a720       ?loc_voice_new@@YAPEAUst_plugin_voice_s@@PEAUst_plugin_info_s@@@Z 000000018000b720 f   biquad_hpf_2.o
 0001:0000a770       ?loc_voice_delete@@YAXPEAUst_plugin_voice_s@@@Z 000000018000b770 f   biquad_hpf_2.o
 0001:0000a780       ?loc_plugin_exit@@YAXPEAUst_plugin_info_s@@@Z 000000018000b780 f   biquad_hpf_2.o
 0001:0000a900       ?loc_set_sample_rate@@YAXPEAUst_plugin_voice_s@@M@Z 000000018000b900 f   biquad_hpf_3.o
 0001:0000a910       ?loc_get_param_name@@YAPEBDPEAUst_plugin_info_s@@I@Z 000000018000b910 f   biquad_hpf_3.o
 0001:0000a930       ?loc_get_param_reset@@YAMPEAUst_plugin_info_s@@I@Z 000000018000b930 f   biquad_hpf_3.o
 0001:0000a950       ?loc_get_param_value@@YAMPEAUst_plugin_shared_s@@I@Z 000000018000b950 f   biquad_hpf_3.o
 0001:0000a970       ?loc_set_param_value@@YAXPEAUst_plugin_shared_s@@IM@Z 000000018000b970 f   biquad_hpf_3.o
 0001:0000a990       ?loc_get_mod_name@@YAPEBDPEAUst_plugin_info_s@@I@Z 000000018000b990 f   biquad_hpf_3.o
 0001:0000a9b0       ?loc_note_on@@YAXPEAUst_plugin_voice_s@@HIIEMM@Z 000000018000b9b0 f   biquad_hpf_3.o
 0001:0000ad50       ?loc_set_mod_value@@YAXPEAUst_plugin_voice_s@@IMI@Z 000000018000bd50 f   biquad_hpf_3.o
 0001:0000ad70       ?loc_prepare_block@@YAXPEAUst_plugin_voice_s@@IMMMM@Z 000000018000bd70 f   biquad_hpf_3.o
 0001:0000b130       ?loc_process_fx_replace@@YAXPEAUst_plugin_voice_s@@HPEBMPEAMI@Z 000000018000c130 f   biquad_hpf_3.o
 0001:0000b780       ?loc_shared_new@@YAPEAUst_plugin_shared_s@@PEAUst_plugin_info_s@@@Z 000000018000c780 f   biquad_hpf_3.o
 0001:0000b7f0       ?loc_shared_delete@@YAXPEAUst_plugin_shared_s@@@Z 000000018000c7f0 f   biquad_hpf_3.o
 0001:0000b800       ?loc_voice_new@@YAPEAUst_plugin_voice_s@@PEAUst_plugin_info_s@@@Z 000000018000c800 f   biquad_hpf_3.o
 0001:0000b850       ?loc_voice_delete@@YAXPEAUst_plugin_voice_s@@@Z 000000018000c850 f   biquad_hpf_3.o
 0001:0000b860       ?loc_plugin_exit@@YAXPEAUst_plugin_info_s@@@Z 000000018000c860 f   biquad_hpf_3.o
 0001:0000b9e0       ?loc_set_sample_rate@@YAXPEAUst_plugin_voice_s@@M@Z 000000018000c9e0 f   biquad_hpf_4.o
 0001:0000b9f0       ?loc_get_param_name@@YAPEBDPEAUst_plugin_info_s@@I@Z 000000018000c9f0 f   biquad_hpf_4.o
 0001:0000ba10       ?loc_get_param_reset@@YAMPEAUst_plugin_info_s@@I@Z 000000018000ca10 f   biquad_hpf_4.o
 0001:0000ba30       ?loc_get_param_value@@YAMPEAUst_plugin_shared_s@@I@Z 000000018000ca30 f   biquad_hpf_4.o
 0001:0000ba50       ?loc_set_param_value@@YAXPEAUst_plugin_shared_s@@IM@Z 000000018000ca50 f   biquad_hpf_4.o
 0001:0000ba70       ?loc_get_mod_name@@YAPEBDPEAUst_plugin_info_s@@I@Z 000000018000ca70 f   biquad_hpf_4.o
 0001:0000ba90       ?loc_note_on@@YAXPEAUst_plugin_voice_s@@HIIEMM@Z 000000018000ca90 f   biquad_hpf_4.o
 0001:0000bf50       ?loc_set_mod_value@@YAXPEAUst_plugin_voice_s@@IMI@Z 000000018000cf50 f   biquad_hpf_4.o
 0001:0000bf70       ?loc_prepare_block@@YAXPEAUst_plugin_voice_s@@IMMMM@Z 000000018000cf70 f   biquad_hpf_4.o
 0001:0000c330       ?loc_process_fx_replace@@YAXPEAUst_plugin_voice_s@@HPEBMPEAMI@Z 000000018000d330 f   biquad_hpf_4.o
 0001:0000c7b0       ?loc_shared_new@@YAPEAUst_plugin_shared_s@@PEAUst_plugin_info_s@@@Z 000000018000d7b0 f   biquad_hpf_4.o
 0001:0000c820       ?loc_shared_delete@@YAXPEAUst_plugin_shared_s@@@Z 000000018000d820 f   biquad_hpf_4.o
 0001:0000c830       ?loc_voice_new@@YAPEAUst_plugin_voice_s@@PEAUst_plugin_info_s@@@Z 000000018000d830 f   biquad_hpf_4.o
 0001:0000c880       ?loc_voice_delete@@YAXPEAUst_plugin_voice_s@@@Z 000000018000d880 f   biquad_hpf_4.o
 0001:0000c890       ?loc_plugin_exit@@YAXPEAUst_plugin_info_s@@@Z 000000018000d890 f   biquad_hpf_4.o
 0001:0000ca10       ?loc_set_sample_rate@@YAXPEAUst_plugin_voice_s@@M@Z 000000018000da10 f   biquad_bpf_1.o
 0001:0000ca20       ?loc_get_param_name@@YAPEBDPEAUst_plugin_info_s@@I@Z 000000018000da20 f   biquad_bpf_1.o
 0001:0000ca40       ?loc_get_param_reset@@YAMPEAUst_plugin_info_s@@I@Z 000000018000da40 f   biquad_bpf_1.o
 0001:0000ca60       ?loc_get_param_value@@YAMPEAUst_plugin_shared_s@@I@Z 000000018000da60 f   biquad_bpf_1.o
 0001:0000ca80       ?loc_set_param_value@@YAXPEAUst_plugin_shared_s@@IM@Z 000000018000da80 f   biquad_bpf_1.o
 0001:0000caa0       ?loc_get_mod_name@@YAPEBDPEAUst_plugin_info_s@@I@Z 000000018000daa0 f   biquad_bpf_1.o
 0001:0000cac0       ?loc_note_on@@YAXPEAUst_plugin_voice_s@@HIIEMM@Z 000000018000dac0 f   biquad_bpf_1.o
 0001:0000cc10       ?loc_set_mod_value@@YAXPEAUst_plugin_voice_s@@IMI@Z 000000018000dc10 f   biquad_bpf_1.o
 0001:0000cc30       ?loc_prepare_block@@YAXPEAUst_plugin_voice_s@@IMMMM@Z 000000018000dc30 f   biquad_bpf_1.o
 0001:0000ce90       ?loc_process_fx_replace@@YAXPEAUst_plugin_voice_s@@HPEBMPEAMI@Z 000000018000de90 f   biquad_bpf_1.o
 0001:0000d160       ?loc_shared_new@@YAPEAUst_plugin_shared_s@@PEAUst_plugin_info_s@@@Z 000000018000e160 f   biquad_bpf_1.o
 0001:0000d1d0       ?loc_shared_delete@@YAXPEAUst_plugin_shared_s@@@Z 000000018000e1d0 f   biquad_bpf_1.o
 0001:0000d1e0       ?loc_voice_new@@YAPEAUst_plugin_voice_s@@PEAUst_plugin_info_s@@@Z 000000018000e1e0 f   biquad_bpf_1.o
 0001:0000d230       ?loc_voice_delete@@YAXPEAUst_plugin_voice_s@@@Z 000000018000e230 f   biquad_bpf_1.o
 0001:0000d240       ?loc_plugin_exit@@YAXPEAUst_plugin_info_s@@@Z 000000018000e240 f   biquad_bpf_1.o
 0001:0000d3c0       ?loc_set_sample_rate@@YAXPEAUst_plugin_voice_s@@M@Z 000000018000e3c0 f   biquad_bpf_2.o
 0001:0000d3d0       ?loc_get_param_name@@YAPEBDPEAUst_plugin_info_s@@I@Z 000000018000e3d0 f   biquad_bpf_2.o
 0001:0000d3f0       ?loc_get_param_reset@@YAMPEAUst_plugin_info_s@@I@Z 000000018000e3f0 f   biquad_bpf_2.o
 0001:0000d410       ?loc_get_param_value@@YAMPEAUst_plugin_shared_s@@I@Z 000000018000e410 f   biquad_bpf_2.o
 0001:0000d430       ?loc_set_param_value@@YAXPEAUst_plugin_shared_s@@IM@Z 000000018000e430 f   biquad_bpf_2.o
 0001:0000d450       ?loc_get_mod_name@@YAPEBDPEAUst_plugin_info_s@@I@Z 000000018000e450 f   biquad_bpf_2.o
 0001:0000d470       ?loc_note_on@@YAXPEAUst_plugin_voice_s@@HIIEMM@Z 000000018000e470 f   biquad_bpf_2.o
 0001:0000d930       ?loc_set_mod_value@@YAXPEAUst_plugin_voice_s@@IMI@Z 000000018000e930 f   biquad_bpf_2.o
 0001:0000d950       ?loc_prepare_block@@YAXPEAUst_plugin_voice_s@@IMMMM@Z 000000018000e950 f   biquad_bpf_2.o
 0001:0000dd10       ?loc_process_fx_replace@@YAXPEAUst_plugin_voice_s@@HPEBMPEAMI@Z 000000018000ed10 f   biquad_bpf_2.o
 0001:0000e190       ?loc_shared_new@@YAPEAUst_plugin_shared_s@@PEAUst_plugin_info_s@@@Z 000000018000f190 f   biquad_bpf_2.o
 0001:0000e200       ?loc_shared_delete@@YAXPEAUst_plugin_shared_s@@@Z 000000018000f200 f   biquad_bpf_2.o
 0001:0000e210       ?loc_voice_new@@YAPEAUst_plugin_voice_s@@PEAUst_plugin_info_s@@@Z 000000018000f210 f   biquad_bpf_2.o
 0001:0000e260       ?loc_voice_delete@@YAXPEAUst_plugin_voice_s@@@Z 000000018000f260 f   biquad_bpf_2.o
 0001:0000e270       ?loc_plugin_exit@@YAXPEAUst_plugin_info_s@@@Z 000000018000f270 f   biquad_bpf_2.o
 0001:0000e3f0       ?loc_set_sample_rate@@YAXPEAUst_plugin_voice_s@@M@Z 000000018000f3f0 f   biquad_bpf_3.o
 0001:0000e400       ?loc_get_param_name@@YAPEBDPEAUst_plugin_info_s@@I@Z 000000018000f400 f   biquad_bpf_3.o
 0001:0000e420       ?loc_get_param_reset@@YAMPEAUst_plugin_info_s@@I@Z 000000018000f420 f   biquad_bpf_3.o
 0001:0000e440       ?loc_get_param_value@@YAMPEAUst_plugin_shared_s@@I@Z 000000018000f440 f   biquad_bpf_3.o
 0001:0000e460       ?loc_set_param_value@@YAXPEAUst_plugin_shared_s@@IM@Z 000000018000f460 f   biquad_bpf_3.o
 0001:0000e480       ?loc_get_mod_name@@YAPEBDPEAUst_plugin_info_s@@I@Z 000000018000f480 f   biquad_bpf_3.o
 0001:0000e4a0       ?loc_note_on@@YAXPEAUst_plugin_voice_s@@HIIEMM@Z 000000018000f4a0 f   biquad_bpf_3.o
 0001:0000e960       ?loc_set_mod_value@@YAXPEAUst_plugin_voice_s@@IMI@Z 000000018000f960 f   biquad_bpf_3.o
 0001:0000e980       ?loc_prepare_block@@YAXPEAUst_plugin_voice_s@@IMMMM@Z 000000018000f980 f   biquad_bpf_3.o
 0001:0000ed40       ?loc_process_fx_replace@@YAXPEAUst_plugin_voice_s@@HPEBMPEAMI@Z 000000018000fd40 f   biquad_bpf_3.o
 0001:0000f1c0       ?loc_shared_new@@YAPEAUst_plugin_shared_s@@PEAUst_plugin_info_s@@@Z 00000001800101c0 f   biquad_bpf_3.o
 0001:0000f230       ?loc_shared_delete@@YAXPEAUst_plugin_shared_s@@@Z 0000000180010230 f   biquad_bpf_3.o
 0001:0000f240       ?loc_voice_new@@YAPEAUst_plugin_voice_s@@PEAUst_plugin_info_s@@@Z 0000000180010240 f   biquad_bpf_3.o
 0001:0000f290       ?loc_voice_delete@@YAXPEAUst_plugin_voice_s@@@Z 0000000180010290 f   biquad_bpf_3.o
 0001:0000f2a0       ?loc_plugin_exit@@YAXPEAUst_plugin_info_s@@@Z 00000001800102a0 f   biquad_bpf_3.o
 0001:0000f420       ?loc_set_sample_rate@@YAXPEAUst_plugin_voice_s@@M@Z 0000000180010420 f   biquad_bpf_4.o
 0001:0000f430       ?loc_get_param_name@@YAPEBDPEAUst_plugin_info_s@@I@Z 0000000180010430 f   biquad_bpf_4.o
 0001:0000f450       ?loc_get_param_reset@@YAMPEAUst_plugin_info_s@@I@Z 0000000180010450 f   biquad_bpf_4.o
 0001:0000f470       ?loc_get_param_value@@YAMPEAUst_plugin_shared_s@@I@Z 0000000180010470 f   biquad_bpf_4.o
 0001:0000f490       ?loc_set_param_value@@YAXPEAUst_plugin_shared_s@@IM@Z 0000000180010490 f   biquad_bpf_4.o
 0001:0000f4b0       ?loc_get_mod_name@@YAPEBDPEAUst_plugin_info_s@@I@Z 00000001800104b0 f   biquad_bpf_4.o
 0001:0000f4d0       ?loc_note_on@@YAXPEAUst_plugin_voice_s@@HIIEMM@Z 00000001800104d0 f   biquad_bpf_4.o
 0001:0000f990       ?loc_set_mod_value@@YAXPEAUst_plugin_voice_s@@IMI@Z 0000000180010990 f   biquad_bpf_4.o
 0001:0000f9b0       ?loc_prepare_block@@YAXPEAUst_plugin_voice_s@@IMMMM@Z 00000001800109b0 f   biquad_bpf_4.o
 0001:0000fd70       ?loc_process_fx_replace@@YAXPEAUst_plugin_voice_s@@HPEBMPEAMI@Z 0000000180010d70 f   biquad_bpf_4.o
 0001:000101f0       ?loc_shared_new@@YAPEAUst_plugin_shared_s@@PEAUst_plugin_info_s@@@Z 00000001800111f0 f   biquad_bpf_4.o
 0001:00010260       ?loc_shared_delete@@YAXPEAUst_plugin_shared_s@@@Z 0000000180011260 f   biquad_bpf_4.o
 0001:00010270       ?loc_voice_new@@YAPEAUst_plugin_voice_s@@PEAUst_plugin_info_s@@@Z 0000000180011270 f   biquad_bpf_4.o
 0001:000102c0       ?loc_voice_delete@@YAXPEAUst_plugin_voice_s@@@Z 00000001800112c0 f   biquad_bpf_4.o
 0001:000102d0       ?loc_plugin_exit@@YAXPEAUst_plugin_info_s@@@Z 00000001800112d0 f   biquad_bpf_4.o
 0001:00010450       ?loc_set_sample_rate@@YAXPEAUst_plugin_voice_s@@M@Z 0000000180011450 f   biquad_brf_1.o
 0001:00010460       ?loc_get_param_name@@YAPEBDPEAUst_plugin_info_s@@I@Z 0000000180011460 f   biquad_brf_1.o
 0001:00010480       ?loc_get_param_reset@@YAMPEAUst_plugin_info_s@@I@Z 0000000180011480 f   biquad_brf_1.o
 0001:000104a0       ?loc_get_param_value@@YAMPEAUst_plugin_shared_s@@I@Z 00000001800114a0 f   biquad_brf_1.o
 0001:000104c0       ?loc_set_param_value@@YAXPEAUst_plugin_shared_s@@IM@Z 00000001800114c0 f   biquad_brf_1.o
 0001:000104e0       ?loc_get_mod_name@@YAPEBDPEAUst_plugin_info_s@@I@Z 00000001800114e0 f   biquad_brf_1.o
 0001:00010500       ?loc_note_on@@YAXPEAUst_plugin_voice_s@@HIIEMM@Z 0000000180011500 f   biquad_brf_1.o
 0001:00010520       ?loc_set_mod_value@@YAXPEAUst_plugin_voice_s@@IMI@Z 0000000180011520 f   biquad_brf_1.o
 0001:00010540       ?loc_prepare_block@@YAXPEAUst_plugin_voice_s@@IMMMM@Z 0000000180011540 f   biquad_brf_1.o
 0001:00010890       ?loc_process_fx_replace@@YAXPEAUst_plugin_voice_s@@HPEBMPEAMI@Z 0000000180011890 f   biquad_brf_1.o
 0001:00010b60       ?loc_shared_new@@YAPEAUst_plugin_shared_s@@PEAUst_plugin_info_s@@@Z 0000000180011b60 f   biquad_brf_1.o
 0001:00010bd0       ?loc_shared_delete@@YAXPEAUst_plugin_shared_s@@@Z 0000000180011bd0 f   biquad_brf_1.o
 0001:00010be0       ?loc_voice_new@@YAPEAUst_plugin_voice_s@@PEAUst_plugin_info_s@@@Z 0000000180011be0 f   biquad_brf_1.o
 0001:00010c30       ?loc_voice_delete@@YAXPEAUst_plugin_voice_s@@@Z 0000000180011c30 f   biquad_brf_1.o
 0001:00010c40       ?loc_plugin_exit@@YAXPEAUst_plugin_info_s@@@Z 0000000180011c40 f   biquad_brf_1.o
 0001:00010dc0       ?loc_set_sample_rate@@YAXPEAUst_plugin_voice_s@@M@Z 0000000180011dc0 f   biquad_brf_2.o
 0001:00010dd0       ?loc_get_param_name@@YAPEBDPEAUst_plugin_info_s@@I@Z 0000000180011dd0 f   biquad_brf_2.o
 0001:00010df0       ?loc_get_param_reset@@YAMPEAUst_plugin_info_s@@I@Z 0000000180011df0 f   biquad_brf_2.o
 0001:00010e10       ?loc_get_param_value@@YAMPEAUst_plugin_shared_s@@I@Z 0000000180011e10 f   biquad_brf_2.o
 0001:00010e30       ?loc_set_param_value@@YAXPEAUst_plugin_shared_s@@IM@Z 0000000180011e30 f   biquad_brf_2.o
 0001:00010e50       ?loc_get_mod_name@@YAPEBDPEAUst_plugin_info_s@@I@Z 0000000180011e50 f   biquad_brf_2.o
 0001:00010e70       ?loc_note_on@@YAXPEAUst_plugin_voice_s@@HIIEMM@Z 0000000180011e70 f   biquad_brf_2.o
 0001:000110f0       ?loc_set_mod_value@@YAXPEAUst_plugin_voice_s@@IMI@Z 00000001800120f0 f   biquad_brf_2.o
 0001:00011110       ?loc_prepare_block@@YAXPEAUst_plugin_voice_s@@IMMMM@Z 0000000180012110 f   biquad_brf_2.o
 0001:000114d0       ?loc_process_fx_replace@@YAXPEAUst_plugin_voice_s@@HPEBMPEAMI@Z 00000001800124d0 f   biquad_brf_2.o
 0001:00011980       ?loc_shared_new@@YAPEAUst_plugin_shared_s@@PEAUst_plugin_info_s@@@Z 0000000180012980 f   biquad_brf_2.o
 0001:000119f0       ?loc_shared_delete@@YAXPEAUst_plugin_shared_s@@@Z 00000001800129f0 f   biquad_brf_2.o
 0001:00011a00       ?loc_voice_new@@YAPEAUst_plugin_voice_s@@PEAUst_plugin_info_s@@@Z 0000000180012a00 f   biquad_brf_2.o
 0001:00011a50       ?loc_voice_delete@@YAXPEAUst_plugin_voice_s@@@Z 0000000180012a50 f   biquad_brf_2.o
 0001:00011a60       ?loc_plugin_exit@@YAXPEAUst_plugin_info_s@@@Z 0000000180012a60 f   biquad_brf_2.o
 0001:00011be0       ?loc_set_sample_rate@@YAXPEAUst_plugin_voice_s@@M@Z 0000000180012be0 f   biquad_brf_3.o
 0001:00011bf0       ?loc_get_param_name@@YAPEBDPEAUst_plugin_info_s@@I@Z 0000000180012bf0 f   biquad_brf_3.o
 0001:00011c10       ?loc_get_param_reset@@YAMPEAUst_plugin_info_s@@I@Z 0000000180012c10 f   biquad_brf_3.o
 0001:00011c30       ?loc_get_param_value@@YAMPEAUst_plugin_shared_s@@I@Z 0000000180012c30 f   biquad_brf_3.o
 0001:00011c50       ?loc_set_param_value@@YAXPEAUst_plugin_shared_s@@IM@Z 0000000180012c50 f   biquad_brf_3.o
 0001:00011c70       ?loc_get_mod_name@@YAPEBDPEAUst_plugin_info_s@@I@Z 0000000180012c70 f   biquad_brf_3.o
 0001:00011c90       ?loc_note_on@@YAXPEAUst_plugin_voice_s@@HIIEMM@Z 0000000180012c90 f   biquad_brf_3.o
 0001:00012030       ?loc_set_mod_value@@YAXPEAUst_plugin_voice_s@@IMI@Z 0000000180013030 f   biquad_brf_3.o
 0001:00012050       ?loc_prepare_block@@YAXPEAUst_plugin_voice_s@@IMMMM@Z 0000000180013050 f   biquad_brf_3.o
 0001:00012410       ?loc_process_fx_replace@@YAXPEAUst_plugin_voice_s@@HPEBMPEAMI@Z 0000000180013410 f   biquad_brf_3.o
 0001:00012a60       ?loc_shared_new@@YAPEAUst_plugin_shared_s@@PEAUst_plugin_info_s@@@Z 0000000180013a60 f   biquad_brf_3.o
 0001:00012ad0       ?loc_shared_delete@@YAXPEAUst_plugin_shared_s@@@Z 0000000180013ad0 f   biquad_brf_3.o
 0001:00012ae0       ?loc_voice_new@@YAPEAUst_plugin_voice_s@@PEAUst_plugin_info_s@@@Z 0000000180013ae0 f   biquad_brf_3.o
 0001:00012b30       ?loc_voice_delete@@YAXPEAUst_plugin_voice_s@@@Z 0000000180013b30 f   biquad_brf_3.o
 0001:00012b40       ?loc_plugin_exit@@YAXPEAUst_plugin_info_s@@@Z 0000000180013b40 f   biquad_brf_3.o
 0001:00012cc0       ?loc_set_sample_rate@@YAXPEAUst_plugin_voice_s@@M@Z 0000000180013cc0 f   biquad_brf_4.o
 0001:00012cd0       ?loc_get_param_name@@YAPEBDPEAUst_plugin_info_s@@I@Z 0000000180013cd0 f   biquad_brf_4.o
 0001:00012cf0       ?loc_get_param_reset@@YAMPEAUst_plugin_info_s@@I@Z 0000000180013cf0 f   biquad_brf_4.o
 0001:00012d10       ?loc_get_param_value@@YAMPEAUst_plugin_shared_s@@I@Z 0000000180013d10 f   biquad_brf_4.o
 0001:00012d30       ?loc_set_param_value@@YAXPEAUst_plugin_shared_s@@IM@Z 0000000180013d30 f   biquad_brf_4.o
 0001:00012d50       ?loc_get_mod_name@@YAPEBDPEAUst_plugin_info_s@@I@Z 0000000180013d50 f   biquad_brf_4.o
 0001:00012d70       ?loc_note_on@@YAXPEAUst_plugin_voice_s@@HIIEMM@Z 0000000180013d70 f   biquad_brf_4.o
 0001:00013230       ?loc_set_mod_value@@YAXPEAUst_plugin_voice_s@@IMI@Z 0000000180014230 f   biquad_brf_4.o
 0001:00013250       ?loc_prepare_block@@YAXPEAUst_plugin_voice_s@@IMMMM@Z 0000000180014250 f   biquad_brf_4.o
 0001:00013610       ?loc_process_fx_replace@@YAXPEAUst_plugin_voice_s@@HPEBMPEAMI@Z 0000000180014610 f   biquad_brf_4.o
 0001:00013a90       ?loc_shared_new@@YAPEAUst_plugin_shared_s@@PEAUst_plugin_info_s@@@Z 0000000180014a90 f   biquad_brf_4.o
 0001:00013b00       ?loc_shared_delete@@YAXPEAUst_plugin_shared_s@@@Z 0000000180014b00 f   biquad_brf_4.o
 0001:00013b10       ?loc_voice_new@@YAPEAUst_plugin_voice_s@@PEAUst_plugin_info_s@@@Z 0000000180014b10 f   biquad_brf_4.o
 0001:00013b60       ?loc_voice_delete@@YAXPEAUst_plugin_voice_s@@@Z 0000000180014b60 f   biquad_brf_4.o
 0001:00013b70       ?loc_plugin_exit@@YAXPEAUst_plugin_info_s@@@Z 0000000180014b70 f   biquad_brf_4.o
 0001:00013cf0       ?loc_set_sample_rate@@YAXPEAUst_plugin_voice_s@@M@Z 0000000180014cf0 f   biquad_peq_1.o
 0001:00013d00       ?loc_get_param_name@@YAPEBDPEAUst_plugin_info_s@@I@Z 0000000180014d00 f   biquad_peq_1.o
 0001:00013d20       ?loc_get_param_reset@@YAMPEAUst_plugin_info_s@@I@Z 0000000180014d20 f   biquad_peq_1.o
 0001:00013d40       ?loc_get_param_value@@YAMPEAUst_plugin_shared_s@@I@Z 0000000180014d40 f   biquad_peq_1.o
 0001:00013d60       ?loc_set_param_value@@YAXPEAUst_plugin_shared_s@@IM@Z 0000000180014d60 f   biquad_peq_1.o
 0001:00013d80       ?loc_get_mod_name@@YAPEBDPEAUst_plugin_info_s@@I@Z 0000000180014d80 f   biquad_peq_1.o
 0001:00013da0       ?loc_note_on@@YAXPEAUst_plugin_voice_s@@HIIEMM@Z 0000000180014da0 f   biquad_peq_1.o
 0001:00013ef0       ?loc_set_mod_value@@YAXPEAUst_plugin_voice_s@@IMI@Z 0000000180014ef0 f   biquad_peq_1.o
 0001:00013f10       ?loc_prepare_block@@YAXPEAUst_plugin_voice_s@@IMMMM@Z 0000000180014f10 f   biquad_peq_1.o
 0001:000141e0       ?loc_process_fx_replace@@YAXPEAUst_plugin_voice_s@@HPEBMPEAMI@Z 00000001800151e0 f   biquad_peq_1.o
 0001:000144b0       ?loc_shared_new@@YAPEAUst_plugin_shared_s@@PEAUst_plugin_info_s@@@Z 00000001800154b0 f   biquad_peq_1.o
 0001:00014520       ?loc_shared_delete@@YAXPEAUst_plugin_shared_s@@@Z 0000000180015520 f   biquad_peq_1.o
 0001:00014530       ?loc_voice_new@@YAPEAUst_plugin_voice_s@@PEAUst_plugin_info_s@@@Z 0000000180015530 f   biquad_peq_1.o
 0001:00014580       ?loc_voice_delete@@YAXPEAUst_plugin_voice_s@@@Z 0000000180015580 f   biquad_peq_1.o
 0001:00014590       ?loc_plugin_exit@@YAXPEAUst_plugin_info_s@@@Z 0000000180015590 f   biquad_peq_1.o
 0001:00014710       ?loc_set_sample_rate@@YAXPEAUst_plugin_voice_s@@M@Z 0000000180015710 f   biquad_peq_2.o
 0001:00014720       ?loc_get_param_name@@YAPEBDPEAUst_plugin_info_s@@I@Z 0000000180015720 f   biquad_peq_2.o
 0001:00014740       ?loc_get_param_reset@@YAMPEAUst_plugin_info_s@@I@Z 0000000180015740 f   biquad_peq_2.o
 0001:00014760       ?loc_get_param_value@@YAMPEAUst_plugin_shared_s@@I@Z 0000000180015760 f   biquad_peq_2.o
 0001:00014780       ?loc_set_param_value@@YAXPEAUst_plugin_shared_s@@IM@Z 0000000180015780 f   biquad_peq_2.o
 0001:000147a0       ?loc_get_mod_name@@YAPEBDPEAUst_plugin_info_s@@I@Z 00000001800157a0 f   biquad_peq_2.o
 0001:000147c0       ?loc_note_on@@YAXPEAUst_plugin_voice_s@@HIIEMM@Z 00000001800157c0 f   biquad_peq_2.o
 0001:00014a40       ?loc_set_mod_value@@YAXPEAUst_plugin_voice_s@@IMI@Z 0000000180015a40 f   biquad_peq_2.o
 0001:00014a60       ?loc_prepare_block@@YAXPEAUst_plugin_voice_s@@IMMMM@Z 0000000180015a60 f   biquad_peq_2.o
 0001:00014e50       ?loc_process_fx_replace@@YAXPEAUst_plugin_voice_s@@HPEBMPEAMI@Z 0000000180015e50 f   biquad_peq_2.o
 0001:00015350       ?loc_shared_new@@YAPEAUst_plugin_shared_s@@PEAUst_plugin_info_s@@@Z 0000000180016350 f   biquad_peq_2.o
 0001:000153c0       ?loc_shared_delete@@YAXPEAUst_plugin_shared_s@@@Z 00000001800163c0 f   biquad_peq_2.o
 0001:000153d0       ?loc_voice_new@@YAPEAUst_plugin_voice_s@@PEAUst_plugin_info_s@@@Z 00000001800163d0 f   biquad_peq_2.o
 0001:00015420       ?loc_voice_delete@@YAXPEAUst_plugin_voice_s@@@Z 0000000180016420 f   biquad_peq_2.o
 0001:00015430       ?loc_plugin_exit@@YAXPEAUst_plugin_info_s@@@Z 0000000180016430 f   biquad_peq_2.o
 0001:000155b0       ?loc_set_sample_rate@@YAXPEAUst_plugin_voice_s@@M@Z 00000001800165b0 f   biquad_peq_3.o
 0001:000155c0       ?loc_get_param_name@@YAPEBDPEAUst_plugin_info_s@@I@Z 00000001800165c0 f   biquad_peq_3.o
 0001:000155e0       ?loc_get_param_reset@@YAMPEAUst_plugin_info_s@@I@Z 00000001800165e0 f   biquad_peq_3.o
 0001:00015600       ?loc_get_param_value@@YAMPEAUst_plugin_shared_s@@I@Z 0000000180016600 f   biquad_peq_3.o
 0001:00015620       ?loc_set_param_value@@YAXPEAUst_plugin_shared_s@@IM@Z 0000000180016620 f   biquad_peq_3.o
 0001:00015640       ?loc_get_mod_name@@YAPEBDPEAUst_plugin_info_s@@I@Z 0000000180016640 f   biquad_peq_3.o
 0001:00015660       ?loc_note_on@@YAXPEAUst_plugin_voice_s@@HIIEMM@Z 0000000180016660 f   biquad_peq_3.o
 0001:00015a00       ?loc_set_mod_value@@YAXPEAUst_plugin_voice_s@@IMI@Z 0000000180016a00 f   biquad_peq_3.o
 0001:00015a20       ?loc_prepare_block@@YAXPEAUst_plugin_voice_s@@IMMMM@Z 0000000180016a20 f   biquad_peq_3.o
 0001:00015e10       ?loc_process_fx_replace@@YAXPEAUst_plugin_voice_s@@HPEBMPEAMI@Z 0000000180016e10 f   biquad_peq_3.o
 0001:000164c0       ?loc_shared_new@@YAPEAUst_plugin_shared_s@@PEAUst_plugin_info_s@@@Z 00000001800174c0 f   biquad_peq_3.o
 0001:00016530       ?loc_shared_delete@@YAXPEAUst_plugin_shared_s@@@Z 0000000180017530 f   biquad_peq_3.o
 0001:00016540       ?loc_voice_new@@YAPEAUst_plugin_voice_s@@PEAUst_plugin_info_s@@@Z 0000000180017540 f   biquad_peq_3.o
 0001:00016590       ?loc_voice_delete@@YAXPEAUst_plugin_voice_s@@@Z 0000000180017590 f   biquad_peq_3.o
 0001:000165a0       ?loc_plugin_exit@@YAXPEAUst_plugin_info_s@@@Z 00000001800175a0 f   biquad_peq_3.o
 0001:00016720       ?loc_set_sample_rate@@YAXPEAUst_plugin_voice_s@@M@Z 0000000180017720 f   biquad_peq_4.o
 0001:00016730       ?loc_get_param_name@@YAPEBDPEAUst_plugin_info_s@@I@Z 0000000180017730 f   biquad_peq_4.o
 0001:00016750       ?loc_get_param_reset@@YAMPEAUst_plugin_info_s@@I@Z 0000000180017750 f   biquad_peq_4.o
 0001:00016770       ?loc_get_param_value@@YAMPEAUst_plugin_shared_s@@I@Z 0000000180017770 f   biquad_peq_4.o
 0001:00016790       ?loc_set_param_value@@YAXPEAUst_plugin_shared_s@@IM@Z 0000000180017790 f   biquad_peq_4.o
 0001:000167b0       ?loc_get_mod_name@@YAPEBDPEAUst_plugin_info_s@@I@Z 00000001800177b0 f   biquad_peq_4.o
 0001:000167d0       ?loc_note_on@@YAXPEAUst_plugin_voice_s@@HIIEMM@Z 00000001800177d0 f   biquad_peq_4.o
 0001:00016c90       ?loc_set_mod_value@@YAXPEAUst_plugin_voice_s@@IMI@Z 0000000180017c90 f   biquad_peq_4.o
 0001:00016cb0       ?loc_prepare_block@@YAXPEAUst_plugin_voice_s@@IMMMM@Z 0000000180017cb0 f   biquad_peq_4.o
 0001:000170a0       ?loc_process_fx_replace@@YAXPEAUst_plugin_voice_s@@HPEBMPEAMI@Z 00000001800180a0 f   biquad_peq_4.o
 0001:00017560       ?loc_shared_new@@YAPEAUst_plugin_shared_s@@PEAUst_plugin_info_s@@@Z 0000000180018560 f   biquad_peq_4.o
 0001:000175d0       ?loc_shared_delete@@YAXPEAUst_plugin_shared_s@@@Z 00000001800185d0 f   biquad_peq_4.o
 0001:000175e0       ?loc_voice_new@@YAPEAUst_plugin_voice_s@@PEAUst_plugin_info_s@@@Z 00000001800185e0 f   biquad_peq_4.o
 0001:00017630       ?loc_voice_delete@@YAXPEAUst_plugin_voice_s@@@Z 0000000180018630 f   biquad_peq_4.o
 0001:00017640       ?loc_plugin_exit@@YAXPEAUst_plugin_info_s@@@Z 0000000180018640 f   biquad_peq_4.o
 0001:000177c0       ?loc_set_sample_rate@@YAXPEAUst_plugin_voice_s@@M@Z 00000001800187c0 f   biquad_lsh_1.o
 0001:000177d0       ?loc_get_param_name@@YAPEBDPEAUst_plugin_info_s@@I@Z 00000001800187d0 f   biquad_lsh_1.o
 0001:000177f0       ?loc_get_param_reset@@YAMPEAUst_plugin_info_s@@I@Z 00000001800187f0 f   biquad_lsh_1.o
 0001:00017810       ?loc_get_param_value@@YAMPEAUst_plugin_shared_s@@I@Z 0000000180018810 f   biquad_lsh_1.o
 0001:00017830       ?loc_set_param_value@@YAXPEAUst_plugin_shared_s@@IM@Z 0000000180018830 f   biquad_lsh_1.o
 0001:00017850       ?loc_get_mod_name@@YAPEBDPEAUst_plugin_info_s@@I@Z 0000000180018850 f   biquad_lsh_1.o
 0001:00017870       ?loc_note_on@@YAXPEAUst_plugin_voice_s@@HIIEMM@Z 0000000180018870 f   biquad_lsh_1.o
 0001:000179c0       ?loc_set_mod_value@@YAXPEAUst_plugin_voice_s@@IMI@Z 00000001800189c0 f   biquad_lsh_1.o
 0001:000179e0       ?loc_prepare_block@@YAXPEAUst_plugin_voice_s@@IMMMM@Z 00000001800189e0 f   biquad_lsh_1.o
 0001:00017c80       ?loc_process_fx_replace@@YAXPEAUst_plugin_voice_s@@HPEBMPEAMI@Z 0000000180018c80 f   biquad_lsh_1.o
 0001:00017f50       ?loc_shared_new@@YAPEAUst_plugin_shared_s@@PEAUst_plugin_info_s@@@Z 0000000180018f50 f   biquad_lsh_1.o
 0001:00017fc0       ?loc_shared_delete@@YAXPEAUst_plugin_shared_s@@@Z 0000000180018fc0 f   biquad_lsh_1.o
 0001:00017fd0       ?loc_voice_new@@YAPEAUst_plugin_voice_s@@PEAUst_plugin_info_s@@@Z 0000000180018fd0 f   biquad_lsh_1.o
 0001:00018020       ?loc_voice_delete@@YAXPEAUst_plugin_voice_s@@@Z 0000000180019020 f   biquad_lsh_1.o
 0001:00018030       ?loc_plugin_exit@@YAXPEAUst_plugin_info_s@@@Z 0000000180019030 f   biquad_lsh_1.o
 0001:000181b0       ?loc_set_sample_rate@@YAXPEAUst_plugin_voice_s@@M@Z 00000001800191b0 f   biquad_lsh_2.o
 0001:000181c0       ?loc_get_param_name@@YAPEBDPEAUst_plugin_info_s@@I@Z 00000001800191c0 f   biquad_lsh_2.o
 0001:000181e0       ?loc_get_param_reset@@YAMPEAUst_plugin_info_s@@I@Z 00000001800191e0 f   biquad_lsh_2.o
 0001:00018200       ?loc_get_param_value@@YAMPEAUst_plugin_shared_s@@I@Z 0000000180019200 f   biquad_lsh_2.o
 0001:00018220       ?loc_set_param_value@@YAXPEAUst_plugin_shared_s@@IM@Z 0000000180019220 f   biquad_lsh_2.o
 0001:00018240       ?loc_get_mod_name@@YAPEBDPEAUst_plugin_info_s@@I@Z 0000000180019240 f   biquad_lsh_2.o
 0001:00018260       ?loc_note_on@@YAXPEAUst_plugin_voice_s@@HIIEMM@Z 0000000180019260 f   biquad_lsh_2.o
 0001:000184e0       ?loc_set_mod_value@@YAXPEAUst_plugin_voice_s@@IMI@Z 00000001800194e0 f   biquad_lsh_2.o
 0001:00018500       ?loc_prepare_block@@YAXPEAUst_plugin_voice_s@@IMMMM@Z 0000000180019500 f   biquad_lsh_2.o
 0001:000188f0       ?loc_process_fx_replace@@YAXPEAUst_plugin_voice_s@@HPEBMPEAMI@Z 00000001800198f0 f   biquad_lsh_2.o
 0001:00018df0       ?loc_shared_new@@YAPEAUst_plugin_shared_s@@PEAUst_plugin_info_s@@@Z 0000000180019df0 f   biquad_lsh_2.o
 0001:00018e60       ?loc_shared_delete@@YAXPEAUst_plugin_shared_s@@@Z 0000000180019e60 f   biquad_lsh_2.o
 0001:00018e70       ?loc_voice_new@@YAPEAUst_plugin_voice_s@@PEAUst_plugin_info_s@@@Z 0000000180019e70 f   biquad_lsh_2.o
 0001:00018ec0       ?loc_voice_delete@@YAXPEAUst_plugin_voice_s@@@Z 0000000180019ec0 f   biquad_lsh_2.o
 0001:00018ed0       ?loc_plugin_exit@@YAXPEAUst_plugin_info_s@@@Z 0000000180019ed0 f   biquad_lsh_2.o
 0001:00019050       ?loc_set_sample_rate@@YAXPEAUst_plugin_voice_s@@M@Z 000000018001a050 f   biquad_lsh_3.o
 0001:00019060       ?loc_get_param_name@@YAPEBDPEAUst_plugin_info_s@@I@Z 000000018001a060 f   biquad_lsh_3.o
 0001:00019080       ?loc_get_param_reset@@YAMPEAUst_plugin_info_s@@I@Z 000000018001a080 f   biquad_lsh_3.o
 0001:000190a0       ?loc_get_param_value@@YAMPEAUst_plugin_shared_s@@I@Z 000000018001a0a0 f   biquad_lsh_3.o
 0001:000190c0       ?loc_set_param_value@@YAXPEAUst_plugin_shared_s@@IM@Z 000000018001a0c0 f   biquad_lsh_3.o
 0001:000190e0       ?loc_get_mod_name@@YAPEBDPEAUst_plugin_info_s@@I@Z 000000018001a0e0 f   biquad_lsh_3.o
 0001:00019100       ?loc_note_on@@YAXPEAUst_plugin_voice_s@@HIIEMM@Z 000000018001a100 f   biquad_lsh_3.o
 0001:000194a0       ?loc_set_mod_value@@YAXPEAUst_plugin_voice_s@@IMI@Z 000000018001a4a0 f   biquad_lsh_3.o
 0001:000194c0       ?loc_prepare_block@@YAXPEAUst_plugin_voice_s@@IMMMM@Z 000000018001a4c0 f   biquad_lsh_3.o
 0001:000198b0       ?loc_process_fx_replace@@YAXPEAUst_plugin_voice_s@@HPEBMPEAMI@Z 000000018001a8b0 f   biquad_lsh_3.o
 0001:00019f60       ?loc_shared_new@@YAPEAUst_plugin_shared_s@@PEAUst_plugin_info_s@@@Z 000000018001af60 f   biquad_lsh_3.o
 0001:00019fd0       ?loc_shared_delete@@YAXPEAUst_plugin_shared_s@@@Z 000000018001afd0 f   biquad_lsh_3.o
 0001:00019fe0       ?loc_voice_new@@YAPEAUst_plugin_voice_s@@PEAUst_plugin_info_s@@@Z 000000018001afe0 f   biquad_lsh_3.o
 0001:0001a030       ?loc_voice_delete@@YAXPEAUst_plugin_voice_s@@@Z 000000018001b030 f   biquad_lsh_3.o
 0001:0001a040       ?loc_plugin_exit@@YAXPEAUst_plugin_info_s@@@Z 000000018001b040 f   biquad_lsh_3.o
 0001:0001a1c0       ?loc_set_sample_rate@@YAXPEAUst_plugin_voice_s@@M@Z 000000018001b1c0 f   biquad_lsh_4.o
 0001:0001a1d0       ?loc_get_param_name@@YAPEBDPEAUst_plugin_info_s@@I@Z 000000018001b1d0 f   biquad_lsh_4.o
 0001:0001a1f0       ?loc_get_param_reset@@YAMPEAUst_plugin_info_s@@I@Z 000000018001b1f0 f   biquad_lsh_4.o
 0001:0001a210       ?loc_get_param_value@@YAMPEAUst_plugin_shared_s@@I@Z 000000018001b210 f   biquad_lsh_4.o
 0001:0001a230       ?loc_set_param_value@@YAXPEAUst_plugin_shared_s@@IM@Z 000000018001b230 f   biquad_lsh_4.o
 0001:0001a250       ?loc_get_mod_name@@YAPEBDPEAUst_plugin_info_s@@I@Z 000000018001b250 f   biquad_lsh_4.o
 0001:0001a270       ?loc_note_on@@YAXPEAUst_plugin_voice_s@@HIIEMM@Z 000000018001b270 f   biquad_lsh_4.o
 0001:0001a730       ?loc_set_mod_value@@YAXPEAUst_plugin_voice_s@@IMI@Z 000000018001b730 f   biquad_lsh_4.o
 0001:0001a750       ?loc_prepare_block@@YAXPEAUst_plugin_voice_s@@IMMMM@Z 000000018001b750 f   biquad_lsh_4.o
 0001:0001ab40       ?loc_process_fx_replace@@YAXPEAUst_plugin_voice_s@@HPEBMPEAMI@Z 000000018001bb40 f   biquad_lsh_4.o
 0001:0001b000       ?loc_shared_new@@YAPEAUst_plugin_shared_s@@PEAUst_plugin_info_s@@@Z 000000018001c000 f   biquad_lsh_4.o
 0001:0001b070       ?loc_shared_delete@@YAXPEAUst_plugin_shared_s@@@Z 000000018001c070 f   biquad_lsh_4.o
 0001:0001b080       ?loc_voice_new@@YAPEAUst_plugin_voice_s@@PEAUst_plugin_info_s@@@Z 000000018001c080 f   biquad_lsh_4.o
 0001:0001b0d0       ?loc_voice_delete@@YAXPEAUst_plugin_voice_s@@@Z 000000018001c0d0 f   biquad_lsh_4.o
 0001:0001b0e0       ?loc_plugin_exit@@YAXPEAUst_plugin_info_s@@@Z 000000018001c0e0 f   biquad_lsh_4.o
 0001:0001b260       ?loc_set_sample_rate@@YAXPEAUst_plugin_voice_s@@M@Z 000000018001c260 f   biquad_hsh_1.o
 0001:0001b270       ?loc_get_param_name@@YAPEBDPEAUst_plugin_info_s@@I@Z 000000018001c270 f   biquad_hsh_1.o
 0001:0001b290       ?loc_get_param_reset@@YAMPEAUst_plugin_info_s@@I@Z 000000018001c290 f   biquad_hsh_1.o
 0001:0001b2b0       ?loc_get_param_value@@YAMPEAUst_plugin_shared_s@@I@Z 000000018001c2b0 f   biquad_hsh_1.o
 0001:0001b2d0       ?loc_set_param_value@@YAXPEAUst_plugin_shared_s@@IM@Z 000000018001c2d0 f   biquad_hsh_1.o
 0001:0001b2f0       ?loc_get_mod_name@@YAPEBDPEAUst_plugin_info_s@@I@Z 000000018001c2f0 f   biquad_hsh_1.o
 0001:0001b310       ?loc_note_on@@YAXPEAUst_plugin_voice_s@@HIIEMM@Z 000000018001c310 f   biquad_hsh_1.o
 0001:0001b460       ?loc_set_mod_value@@YAXPEAUst_plugin_voice_s@@IMI@Z 000000018001c460 f   biquad_hsh_1.o
 0001:0001b480       ?loc_prepare_block@@YAXPEAUst_plugin_voice_s@@IMMMM@Z 000000018001c480 f   biquad_hsh_1.o
 0001:0001b720       ?loc_process_fx_replace@@YAXPEAUst_plugin_voice_s@@HPEBMPEAMI@Z 000000018001c720 f   biquad_hsh_1.o
 0001:0001b9f0       ?loc_shared_new@@YAPEAUst_plugin_shared_s@@PEAUst_plugin_info_s@@@Z 000000018001c9f0 f   biquad_hsh_1.o
 0001:0001ba60       ?loc_shared_delete@@YAXPEAUst_plugin_shared_s@@@Z 000000018001ca60 f   biquad_hsh_1.o
 0001:0001ba70       ?loc_voice_new@@YAPEAUst_plugin_voice_s@@PEAUst_plugin_info_s@@@Z 000000018001ca70 f   biquad_hsh_1.o
 0001:0001bac0       ?loc_voice_delete@@YAXPEAUst_plugin_voice_s@@@Z 000000018001cac0 f   biquad_hsh_1.o
 0001:0001bad0       ?loc_plugin_exit@@YAXPEAUst_plugin_info_s@@@Z 000000018001cad0 f   biquad_hsh_1.o
 0001:0001bc50       ?loc_set_sample_rate@@YAXPEAUst_plugin_voice_s@@M@Z 000000018001cc50 f   biquad_hsh_2.o
 0001:0001bc60       ?loc_get_param_name@@YAPEBDPEAUst_plugin_info_s@@I@Z 000000018001cc60 f   biquad_hsh_2.o
 0001:0001bc80       ?loc_get_param_reset@@YAMPEAUst_plugin_info_s@@I@Z 000000018001cc80 f   biquad_hsh_2.o
 0001:0001bca0       ?loc_get_param_value@@YAMPEAUst_plugin_shared_s@@I@Z 000000018001cca0 f   biquad_hsh_2.o
 0001:0001bcc0       ?loc_set_param_value@@YAXPEAUst_plugin_shared_s@@IM@Z 000000018001ccc0 f   biquad_hsh_2.o
 0001:0001bce0       ?loc_get_mod_name@@YAPEBDPEAUst_plugin_info_s@@I@Z 000000018001cce0 f   biquad_hsh_2.o
 0001:0001bd00       ?loc_note_on@@YAXPEAUst_plugin_voice_s@@HIIEMM@Z 000000018001cd00 f   biquad_hsh_2.o
 0001:0001bf80       ?loc_set_mod_value@@YAXPEAUst_plugin_voice_s@@IMI@Z 000000018001cf80 f   biquad_hsh_2.o
 0001:0001bfa0       ?loc_prepare_block@@YAXPEAUst_plugin_voice_s@@IMMMM@Z 000000018001cfa0 f   biquad_hsh_2.o
 0001:0001c390       ?loc_process_fx_replace@@YAXPEAUst_plugin_voice_s@@HPEBMPEAMI@Z 000000018001d390 f   biquad_hsh_2.o
 0001:0001c890       ?loc_shared_new@@YAPEAUst_plugin_shared_s@@PEAUst_plugin_info_s@@@Z 000000018001d890 f   biquad_hsh_2.o
 0001:0001c900       ?loc_shared_delete@@YAXPEAUst_plugin_shared_s@@@Z 000000018001d900 f   biquad_hsh_2.o
 0001:0001c910       ?loc_voice_new@@YAPEAUst_plugin_voice_s@@PEAUst_plugin_info_s@@@Z 000000018001d910 f   biquad_hsh_2.o
 0001:0001c960       ?loc_voice_delete@@YAXPEAUst_plugin_voice_s@@@Z 000000018001d960 f   biquad_hsh_2.o
 0001:0001c970       ?loc_plugin_exit@@YAXPEAUst_plugin_info_s@@@Z 000000018001d970 f   biquad_hsh_2.o
 0001:0001caf0       ?loc_set_sample_rate@@YAXPEAUst_plugin_voice_s@@M@Z 000000018001daf0 f   biquad_hsh_3.o
 0001:0001cb00       ?loc_get_param_name@@YAPEBDPEAUst_plugin_info_s@@I@Z 000000018001db00 f   biquad_hsh_3.o
 0001:0001cb20       ?loc_get_param_reset@@YAMPEAUst_plugin_info_s@@I@Z 000000018001db20 f   biquad_hsh_3.o
 0001:0001cb40       ?loc_get_param_value@@YAMPEAUst_plugin_shared_s@@I@Z 000000018001db40 f   biquad_hsh_3.o
 0001:0001cb60       ?loc_set_param_value@@YAXPEAUst_plugin_shared_s@@IM@Z 000000018001db60 f   biquad_hsh_3.o
 0001:0001cb80       ?loc_get_mod_name@@YAPEBDPEAUst_plugin_info_s@@I@Z 000000018001db80 f   biquad_hsh_3.o
 0001:0001cba0       ?loc_note_on@@YAXPEAUst_plugin_voice_s@@HIIEMM@Z 000000018001dba0 f   biquad_hsh_3.o
 0001:0001cf40       ?loc_set_mod_value@@YAXPEAUst_plugin_voice_s@@IMI@Z 000000018001df40 f   biquad_hsh_3.o
 0001:0001cf60       ?loc_prepare_block@@YAXPEAUst_plugin_voice_s@@IMMMM@Z 000000018001df60 f   biquad_hsh_3.o
 0001:0001d350       ?loc_process_fx_replace@@YAXPEAUst_plugin_voice_s@@HPEBMPEAMI@Z 000000018001e350 f   biquad_hsh_3.o
 0001:0001da00       ?loc_shared_new@@YAPEAUst_plugin_shared_s@@PEAUst_plugin_info_s@@@Z 000000018001ea00 f   biquad_hsh_3.o
 0001:0001da70       ?loc_shared_delete@@YAXPEAUst_plugin_shared_s@@@Z 000000018001ea70 f   biquad_hsh_3.o
 0001:0001da80       ?loc_voice_new@@YAPEAUst_plugin_voice_s@@PEAUst_plugin_info_s@@@Z 000000018001ea80 f   biquad_hsh_3.o
 0001:0001dad0       ?loc_voice_delete@@YAXPEAUst_plugin_voice_s@@@Z 000000018001ead0 f   biquad_hsh_3.o
 0001:0001dae0       ?loc_plugin_exit@@YAXPEAUst_plugin_info_s@@@Z 000000018001eae0 f   biquad_hsh_3.o
 0001:0001dc60       ?loc_set_sample_rate@@YAXPEAUst_plugin_voice_s@@M@Z 000000018001ec60 f   biquad_hsh_4.o
 0001:0001dc70       ?loc_get_param_name@@YAPEBDPEAUst_plugin_info_s@@I@Z 000000018001ec70 f   biquad_hsh_4.o
 0001:0001dc90       ?loc_get_param_reset@@YAMPEAUst_plugin_info_s@@I@Z 000000018001ec90 f   biquad_hsh_4.o
 0001:0001dcb0       ?loc_get_param_value@@YAMPEAUst_plugin_shared_s@@I@Z 000000018001ecb0 f   biquad_hsh_4.o
 0001:0001dcd0       ?loc_set_param_value@@YAXPEAUst_plugin_shared_s@@IM@Z 000000018001ecd0 f   biquad_hsh_4.o
 0001:0001dcf0       ?loc_get_mod_name@@YAPEBDPEAUst_plugin_info_s@@I@Z 000000018001ecf0 f   biquad_hsh_4.o
 0001:0001dd10       ?loc_note_on@@YAXPEAUst_plugin_voice_s@@HIIEMM@Z 000000018001ed10 f   biquad_hsh_4.o
 0001:0001e1d0       ?loc_set_mod_value@@YAXPEAUst_plugin_voice_s@@IMI@Z 000000018001f1d0 f   biquad_hsh_4.o
 0001:0001e1f0       ?loc_prepare_block@@YAXPEAUst_plugin_voice_s@@IMMMM@Z 000000018001f1f0 f   biquad_hsh_4.o
 0001:0001e5e0       ?loc_process_fx_replace@@YAXPEAUst_plugin_voice_s@@HPEBMPEAMI@Z 000000018001f5e0 f   biquad_hsh_4.o
 0001:0001eaa0       ?loc_shared_new@@YAPEAUst_plugin_shared_s@@PEAUst_plugin_info_s@@@Z 000000018001faa0 f   biquad_hsh_4.o
 0001:0001eb10       ?loc_shared_delete@@YAXPEAUst_plugin_shared_s@@@Z 000000018001fb10 f   biquad_hsh_4.o
 0001:0001eb20       ?loc_voice_new@@YAPEAUst_plugin_voice_s@@PEAUst_plugin_info_s@@@Z 000000018001fb20 f   biquad_hsh_4.o
 0001:0001eb70       ?loc_voice_delete@@YAXPEAUst_plugin_voice_s@@@Z 000000018001fb70 f   biquad_hsh_4.o
 0001:0001eb80       ?loc_plugin_exit@@YAXPEAUst_plugin_info_s@@@Z 000000018001fb80 f   biquad_hsh_4.o
 0001:0001ed00       loc_get_param_name         000000018001fd00 f   amp.o
 0001:0001ed20       loc_get_param_reset        000000018001fd20 f   amp.o
 0001:0001ed40       loc_get_param_value        000000018001fd40 f   amp.o
 0001:0001ed60       loc_set_param_value        000000018001fd60 f   amp.o
 0001:0001ed80       loc_get_mod_name           000000018001fd80 f   amp.o
 0001:0001eda0       loc_note_on                000000018001fda0 f   amp.o
 0001:0001edc0       loc_set_mod_value          000000018001fdc0 f   amp.o
 0001:0001ede0       loc_prepare_block          000000018001fde0 f   amp.o
 0001:0001eee0       loc_process_fx_replace     000000018001fee0 f   amp.o
 0001:0001f410       loc_shared_new             0000000180020410 f   amp.o
 0001:0001f470       loc_shared_delete          0000000180020470 f   amp.o
 0001:0001f480       loc_voice_new              0000000180020480 f   amp.o
 0001:0001f4e0       loc_voice_delete           00000001800204e0 f   amp.o
 0001:0001f4f0       loc_plugin_exit            00000001800204f0 f   amp.o
 0001:0001f660       loc_get_param_name         0000000180020660 f   pan.o
 0001:0001f680       loc_get_param_reset        0000000180020680 f   pan.o
 0001:0001f6a0       loc_get_param_value        00000001800206a0 f   pan.o
 0001:0001f6c0       loc_set_param_value        00000001800206c0 f   pan.o
 0001:0001f6e0       loc_get_mod_name           00000001800206e0 f   pan.o
 0001:0001f700       loc_note_on                0000000180020700 f   pan.o
 0001:0001f720       loc_set_mod_value          0000000180020720 f   pan.o
 0001:0001f740       loc_prepare_block          0000000180020740 f   pan.o
 0001:0001f8c0       loc_process_fx_replace     00000001800208c0 f   pan.o
 0001:0001fc40       loc_shared_new             0000000180020c40 f   pan.o
 0001:0001fcb0       loc_shared_delete          0000000180020cb0 f   pan.o
 0001:0001fcc0       loc_voice_new              0000000180020cc0 f   pan.o
 0001:0001fd10       loc_voice_delete           0000000180020d10 f   pan.o
 0001:0001fd20       loc_plugin_exit            0000000180020d20 f   pan.o
 0001:0001fe90       loc_get_param_name         0000000180020e90 f   ws_smoothstep.o
 0001:0001feb0       loc_get_param_reset        0000000180020eb0 f   ws_smoothstep.o
 0001:0001fed0       loc_get_param_value        0000000180020ed0 f   ws_smoothstep.o
 0001:0001fef0       loc_set_param_value        0000000180020ef0 f   ws_smoothstep.o
 0001:0001ff10       loc_get_mod_name           0000000180020f10 f   ws_smoothstep.o
 0001:0001ff30       loc_note_on                0000000180020f30 f   ws_smoothstep.o
 0001:0001ff50       loc_set_mod_value          0000000180020f50 f   ws_smoothstep.o
 0001:0001ff70       loc_prepare_block          0000000180020f70 f   ws_smoothstep.o
 0001:00020190       loc_process_fx_replace     0000000180021190 f   ws_smoothstep.o
 0001:00020890       loc_shared_new             0000000180021890 f   ws_smoothstep.o
 0001:00020900       loc_shared_delete          0000000180021900 f   ws_smoothstep.o
 0001:00020910       loc_voice_new              0000000180021910 f   ws_smoothstep.o
 0001:00020960       loc_voice_delete           0000000180021960 f   ws_smoothstep.o
 0001:00020970       loc_plugin_exit            0000000180021970 f   ws_smoothstep.o
 0001:00020ae0       ?loc_set_sample_rate@@YAXPEAUst_plugin_voice_s@@M@Z 0000000180021ae0 f   dly_1.o
 0001:00020af0       ?loc_get_param_name@@YAPEBDPEAUst_plugin_info_s@@I@Z 0000000180021af0 f   dly_1.o
 0001:00020b10       ?loc_get_param_reset@@YAMPEAUst_plugin_info_s@@I@Z 0000000180021b10 f   dly_1.o
 0001:00020b30       ?loc_get_param_value@@YAMPEAUst_plugin_shared_s@@I@Z 0000000180021b30 f   dly_1.o
 0001:00020b50       ?loc_set_param_value@@YAXPEAUst_plugin_shared_s@@IM@Z 0000000180021b50 f   dly_1.o
 0001:00020b70       ?loc_get_mod_name@@YAPEBDPEAUst_plugin_info_s@@I@Z 0000000180021b70 f   dly_1.o
 0001:00020b90       ?loc_note_on@@YAXPEAUst_plugin_voice_s@@HIIEMM@Z 0000000180021b90 f   dly_1.o
 0001:00020c00       ?loc_set_mod_value@@YAXPEAUst_plugin_voice_s@@IMI@Z 0000000180021c00 f   dly_1.o
 0001:00020c20       ?loc_prepare_block@@YAXPEAUst_plugin_voice_s@@IMMMM@Z 0000000180021c20 f   dly_1.o
 0001:00020e10       ?loc_process_fx_replace@@YAXPEAUst_plugin_voice_s@@HPEBMPEAMI@Z 0000000180021e10 f   dly_1.o
 0001:00021660       ?loc_shared_new@@YAPEAUst_plugin_shared_s@@PEAUst_plugin_info_s@@@Z 0000000180022660 f   dly_1.o
 0001:000216c0       ?loc_shared_delete@@YAXPEAUst_plugin_shared_s@@@Z 00000001800226c0 f   dly_1.o
 0001:000216d0       ?loc_voice_new@@YAPEAUst_plugin_voice_s@@PEAUst_plugin_info_s@@@Z 00000001800226d0 f   dly_1.o
 0001:00021720       ?loc_voice_delete@@YAXPEAUst_plugin_voice_s@@@Z 0000000180022720 f   dly_1.o
 0001:00021730       ?loc_plugin_exit@@YAXPEAUst_plugin_info_s@@@Z 0000000180022730 f   dly_1.o
 0001:000218b0       ?loc_set_sample_rate@@YAXPEAUst_plugin_voice_s@@M@Z 00000001800228b0 f   dly_2.o
 0001:000218c0       ?loc_get_param_name@@YAPEBDPEAUst_plugin_info_s@@I@Z 00000001800228c0 f   dly_2.o
 0001:000218e0       ?loc_get_param_reset@@YAMPEAUst_plugin_info_s@@I@Z 00000001800228e0 f   dly_2.o
 0001:00021900       ?loc_get_param_value@@YAMPEAUst_plugin_shared_s@@I@Z 0000000180022900 f   dly_2.o
 0001:00021920       ?loc_set_param_value@@YAXPEAUst_plugin_shared_s@@IM@Z 0000000180022920 f   dly_2.o
 0001:00021940       ?loc_get_mod_name@@YAPEBDPEAUst_plugin_info_s@@I@Z 0000000180022940 f   dly_2.o
 0001:00021960       ?loc_note_on@@YAXPEAUst_plugin_voice_s@@HIIEMM@Z 0000000180022960 f   dly_2.o
 0001:000219d0       ?loc_set_mod_value@@YAXPEAUst_plugin_voice_s@@IMI@Z 00000001800229d0 f   dly_2.o
 0001:000219f0       ?loc_prepare_block@@YAXPEAUst_plugin_voice_s@@IMMMM@Z 00000001800229f0 f   dly_2.o
 0001:00021db0       ?loc_process_fx_replace@@YAXPEAUst_plugin_voice_s@@HPEBMPEAMI@Z 0000000180022db0 f   dly_2.o
 0001:00022090       ?loc_shared_new@@YAPEAUst_plugin_shared_s@@PEAUst_plugin_info_s@@@Z 0000000180023090 f   dly_2.o
 0001:00022100       ?loc_shared_delete@@YAXPEAUst_plugin_shared_s@@@Z 0000000180023100 f   dly_2.o
 0001:00022110       ?loc_voice_new@@YAPEAUst_plugin_voice_s@@PEAUst_plugin_info_s@@@Z 0000000180023110 f   dly_2.o
 0001:00022160       ?loc_voice_delete@@YAXPEAUst_plugin_voice_s@@@Z 0000000180023160 f   dly_2.o
 0001:00022170       ?loc_plugin_exit@@YAXPEAUst_plugin_info_s@@@Z 0000000180023170 f   dly_2.o
 0001:000222f0       ?loc_set_sample_rate@@YAXPEAUst_plugin_voice_s@@M@Z 00000001800232f0 f   dly_flt_2.o
 0001:00022300       ?loc_get_param_name@@YAPEBDPEAUst_plugin_info_s@@I@Z 0000000180023300 f   dly_flt_2.o
 0001:00022320       ?loc_get_param_reset@@YAMPEAUst_plugin_info_s@@I@Z 0000000180023320 f   dly_flt_2.o
 0001:00022340       ?loc_get_param_value@@YAMPEAUst_plugin_shared_s@@I@Z 0000000180023340 f   dly_flt_2.o
 0001:00022360       ?loc_set_param_value@@YAXPEAUst_plugin_shared_s@@IM@Z 0000000180023360 f   dly_flt_2.o
 0001:00022380       ?loc_get_mod_name@@YAPEBDPEAUst_plugin_info_s@@I@Z 0000000180023380 f   dly_flt_2.o
 0001:000223a0       ?loc_note_on@@YAXPEAUst_plugin_voice_s@@HIIEMM@Z 00000001800233a0 f   dly_flt_2.o
 0001:00022410       ?loc_set_mod_value@@YAXPEAUst_plugin_voice_s@@IMI@Z 0000000180023410 f   dly_flt_2.o
 0001:00022430       ?loc_prepare_block@@YAXPEAUst_plugin_voice_s@@IMMMM@Z 0000000180023430 f   dly_flt_2.o
 0001:000229d0       ?loc_process_fx_replace@@YAXPEAUst_plugin_voice_s@@HPEBMPEAMI@Z 00000001800239d0 f   dly_flt_2.o
 0001:00022ed0       ?loc_shared_new@@YAPEAUst_plugin_shared_s@@PEAUst_plugin_info_s@@@Z 0000000180023ed0 f   dly_flt_2.o
 0001:00022f40       ?loc_shared_delete@@YAXPEAUst_plugin_shared_s@@@Z 0000000180023f40 f   dly_flt_2.o
 0001:00022f50       ?loc_voice_new@@YAPEAUst_plugin_voice_s@@PEAUst_plugin_info_s@@@Z 0000000180023f50 f   dly_flt_2.o
 0001:00022fa0       ?loc_voice_delete@@YAXPEAUst_plugin_voice_s@@@Z 0000000180023fa0 f   dly_flt_2.o
 0001:00022fb0       ?loc_plugin_exit@@YAXPEAUst_plugin_info_s@@@Z 0000000180023fb0 f   dly_flt_2.o
 0001:00023320       ?loc_get_param_name@@YAPEBDPEAUst_plugin_info_s@@I@Z 0000000180024320 f   bitflipper.o
 0001:00023340       ?loc_get_param_reset@@YAMPEAUst_plugin_info_s@@I@Z 0000000180024340 f   bitflipper.o
 0001:00023360       ?loc_get_param_value@@YAMPEAUst_plugin_shared_s@@I@Z 0000000180024360 f   bitflipper.o
 0001:00023380       ?loc_set_param_value@@YAXPEAUst_plugin_shared_s@@IM@Z 0000000180024380 f   bitflipper.o
 0001:000233a0       ?loc_get_mod_name@@YAPEBDPEAUst_plugin_info_s@@I@Z 00000001800243a0 f   bitflipper.o
 0001:000233c0       ?loc_note_on@@YAXPEAUst_plugin_voice_s@@HIIEMM@Z 00000001800243c0 f   bitflipper.o
 0001:00023640       ?loc_set_mod_value@@YAXPEAUst_plugin_voice_s@@IMI@Z 0000000180024640 f   bitflipper.o
 0001:00023660       ?loc_prepare_block@@YAXPEAUst_plugin_voice_s@@IMMMM@Z 0000000180024660 f   bitflipper.o
 0001:00023900       ?loc_process_fx_replace@@YAXPEAUst_plugin_voice_s@@HPEBMPEAMI@Z 0000000180024900 f   bitflipper.o
 0001:00024110       ?loc_shared_new@@YAPEAUst_plugin_shared_s@@PEAUst_plugin_info_s@@@Z 0000000180025110 f   bitflipper.o
 0001:00024180       ?loc_shared_delete@@YAXPEAUst_plugin_shared_s@@@Z 0000000180025180 f   bitflipper.o
 0001:00024190       ?loc_voice_new@@YAPEAUst_plugin_voice_s@@PEAUst_plugin_info_s@@@Z 0000000180025190 f   bitflipper.o
 0001:000241e0       ?loc_voice_delete@@YAXPEAUst_plugin_voice_s@@@Z 00000001800251e0 f   bitflipper.o
 0001:000241f0       ?loc_plugin_exit@@YAXPEAUst_plugin_info_s@@@Z 00000001800251f0 f   bitflipper.o
 0001:00024458       $LN49                      0000000180025458     fx_example.o
 0001:00024504       ?dllmain_crt_dispatch@@YAHQEAUHINSTANCE__@@KQEAX@Z 0000000180025504 f   LIBCMT:dll_dllmain.obj
 0001:00024554       ?dllmain_crt_process_attach@@YAHQEAUHINSTANCE__@@QEAX@Z 0000000180025554 f   LIBCMT:dll_dllmain.obj
 0001:0002466c       ?dllmain_crt_process_detach@@YAH_N@Z 000000018002566c f   LIBCMT:dll_dllmain.obj
 0001:000246f0       ?dllmain_dispatch@@YAHQEAUHINSTANCE__@@KQEAX@Z 00000001800256f0 f   LIBCMT:dll_dllmain.obj
 0001:00025030       $$000000                   0000000180026030     libvcruntime:memset.obj
 0001:00025520       $$000000                   0000000180026520     libvcruntime:notify.obj
 0001:000257c0       $$000000                   00000001800267c0     libvcruntime:memcpy.obj
 0001:00025bc8       ?try_get_function@@YAPEAXW4function_id@?A0x5a6460af@@QEBDQEBW4module_id@2@2@Z 0000000180026bc8 f   libvcruntime:winapi_downlevel.obj
 0001:00025eb0       $$000000                   0000000180026eb0     libvcruntime:handlers.obj
 0001:00025fe0       $$000000                   0000000180026fe0     libucrt:sinf.obj
 0001:000266e0       $$000000                   00000001800276e0     libucrt:powf.obj
 0001:00027840       $$000000                   0000000180028840     libucrt:exp.obj
 0001:00027c40       $$000000                   0000000180028c40     libucrt:sin.obj
 0001:000281b0       $$000000                   00000001800291b0     libucrt:cosf.obj
 0001:00028a6c       splitexp                   0000000180029a6c f   libucrt:sinh.obj
 0001:00028b90       $$000000                   0000000180029b90     libucrt:pow.obj
 0001:0002a2f0       $$000000                   000000018002b2f0     libucrt:tan.obj
 0001:0002a8b0       _tan_piby4                 000000018002b8b0 f   libucrt:tan.obj
 0001:0002accc       ??$?RV<lambda_d80eeec6fff315bfe5c115232f3240e3>@@AEAV<lambda_6e4b09c48022b2350581041d5f6b0c4c>@@V<lambda_2358e3775559c9db80273638284d5e45>@@@?$__crt_seh_guarded_call@X@@QEAAX$$QEAV<lambda_d80eeec6fff315bfe5c115232f3240e3>@@AEAV<lambda_6e4b09c48022b2350581041d5f6b0c4c>@@$$QEAV<lambda_2358e3775559c9db80273638284d5e45>@@@Z 000000018002bccc f   libucrt:exit.obj
 0001:0002ad04       ??R<lambda_6e4b09c48022b2350581041d5f6b0c4c>@@QEBA@XZ 000000018002bd04 f   libucrt:exit.obj
 0001:0002addc       ?atexit_exception_filter@@YAHK@Z 000000018002bddc f   libucrt:exit.obj
 0001:0002ade8       ?common_exit@@YAXHW4_crt_exit_cleanup_mode@@W4_crt_exit_return_mode@@@Z 000000018002bde8 f   libucrt:exit.obj
 0001:0002aea4       ?exit_or_terminate_process@@YAXI@Z 000000018002bea4 f   libucrt:exit.obj
 0001:0002aef0       ?try_cor_exit_process@@YAXI@Z 000000018002bef0 f   libucrt:exit.obj
 0001:0002af78       ??$parse_command_line@D@@YAXPEADPEAPEAD0PEA_K2@Z 000000018002bf78 f   libucrt:argv_parsing.obj
 0001:0002b31c       ??$common_initialize_environment_nolock@D@@YAHXZ 000000018002c31c f   libucrt:environment_initialization.obj
 0001:0002b388       ??$create_environment@D@@YAQEAPEADQEAD@Z 000000018002c388 f   libucrt:environment_initialization.obj
 0001:0002b494       ??$free_environment@D@@YAXQEAPEAD@Z 000000018002c494 f   libucrt:environment_initialization.obj
 0001:0002b494       ??$free_environment@_W@@YAXQEAPEA_W@Z 000000018002c494 f   libucrt:environment_initialization.obj
 0001:0002b4d8       ??$uninitialize_environment_internal@D@@YAXAEAPEAPEAD@Z 000000018002c4d8 f   libucrt:environment_initialization.obj
 0001:0002b4f4       ??$uninitialize_environment_internal@_W@@YAXAEAPEAPEA_W@Z 000000018002c4f4 f   libucrt:environment_initialization.obj
 0001:0002b550       ??$?RV<lambda_7777bce6b2f8c936911f934f8298dc43>@@AEAV<lambda_f03950bc5685219e0bcd2087efbe011e>@@V<lambda_3883c3dff614d5e0c5f61bb1ac94921c>@@@?$__crt_seh_guarded_call@H@@QEAAH$$QEAV<lambda_7777bce6b2f8c936911f934f8298dc43>@@AEAV<lambda_f03950bc5685219e0bcd2087efbe011e>@@$$QEAV<lambda_3883c3dff614d5e0c5f61bb1ac94921c>@@@Z 000000018002c550 f   libucrt:onexit.obj
 0001:0002b58c       ??R<lambda_f03950bc5685219e0bcd2087efbe011e>@@QEBAHXZ 000000018002c58c f   libucrt:onexit.obj
 0001:0002b754       initialize_global_variables 000000018002c754 f   libucrt:initialization.obj
 0001:0002b768       initialize_c               000000018002c768 f   libucrt:initialization.obj
 0001:0002b78c       initialize_environment     000000018002c78c f   libucrt:initialization.obj
 0001:0002b78c       initialize_global_state_isolation 000000018002c78c f   libucrt:initialization.obj
 0001:0002b78c       report_memory_leaks        000000018002c78c f   libucrt:initialization.obj
 0001:0002b78c       uninitialize_c             000000018002c78c f   libucrt:initialization.obj
 0001:0002b78c       uninitialize_global_state_isolation 000000018002c78c f   libucrt:initialization.obj
 0001:0002b790       uninitialize_environment   000000018002c790 f   libucrt:initialization.obj
 0001:0002b7a0       initialize_pointers        000000018002c7a0 f   libucrt:initialization.obj
 0001:0002b7f4       uninitialize_vcruntime     000000018002c7f4 f   libucrt:initialization.obj
 0001:0002b7fc       uninitialize_allocated_memory 000000018002c7fc f   libucrt:initialization.obj
 0001:0002b83c       uninitialize_allocated_io_buffers 000000018002c83c f   libucrt:initialization.obj
 0001:0002ba80       $$000000                   000000018002ca80     libucrt:strncmp.obj
 0001:0002bc60       $$000000                   000000018002cc60     libucrt:remainder_piby2f_forc.obj
 0001:0002be14       _sincos_special            000000018002ce14 f   libucrt:sincos_special.obj
 0001:0002beb8       _sincosf_special           000000018002ceb8 f   libucrt:sincos_special.obj
 0001:0002c2f0       _call_matherr              000000018002d2f0 f   libucrt:libm_error.obj
 0001:0002c358       _exception_enabled         000000018002d358 f   libucrt:libm_error.obj
 0001:0002c740       $$000000                   000000018002d740     libucrt:remainder_piby2_forasm.obj
 0001:0002ca90       $$000000                   000000018002da90     libucrt:remainder_piby2_forfma3.obj
 0001:0002cd00       $$000000                   000000018002dd00     libucrt:remainder_piby2f_forasm.obj
 0001:0002ce50       ??$?RV<lambda_0ae27a3a962d80f24befdcbee591983d>@@AEAV<lambda_8d0ee55de4b1038c4002e0adecdf1839>@@V<lambda_dc504788e8f1664fe9b84e20bfb512f2>@@@?$__crt_seh_guarded_call@X@@QEAAX$$QEAV<lambda_0ae27a3a962d80f24befdcbee591983d>@@AEAV<lambda_8d0ee55de4b1038c4002e0adecdf1839>@@$$QEAV<lambda_dc504788e8f1664fe9b84e20bfb512f2>@@@Z 000000018002de50 f   libucrt:per_thread_data.obj
 0001:0002ce90       ??$?RV<lambda_2d41944a1d46af3157314b8a01080d33>@@AEAV<lambda_8f455de75cd7d7f24b4096f044d8b9e6>@@V<lambda_aa500f224e6afead328df44964fe2772>@@@?$__crt_seh_guarded_call@X@@QEAAX$$QEAV<lambda_2d41944a1d46af3157314b8a01080d33>@@AEAV<lambda_8f455de75cd7d7f24b4096f044d8b9e6>@@$$QEAV<lambda_aa500f224e6afead328df44964fe2772>@@@Z 000000018002de90 f   libucrt:per_thread_data.obj
 0001:0002ced0       ??$?RV<lambda_aa87e3671a710a21b5dc78c0bdf72e11>@@AEAV<lambda_92619d2358a28f41a33ba319515a20b9>@@V<lambda_6992ecaafeb10aed2b74cb1fae11a551>@@@?$__crt_seh_guarded_call@X@@QEAAX$$QEAV<lambda_aa87e3671a710a21b5dc78c0bdf72e11>@@AEAV<lambda_92619d2358a28f41a33ba319515a20b9>@@$$QEAV<lambda_6992ecaafeb10aed2b74cb1fae11a551>@@@Z 000000018002ded0 f   libucrt:per_thread_data.obj
 0001:0002cf18       ??$?RV<lambda_f2e299630e499de9f9a165e60fcd3db5>@@AEAV<lambda_2ae9d31cdba2644fcbeaf08da7c24588>@@V<lambda_40d01ff24d0e7b3814fdbdcee8eab3c7>@@@?$__crt_seh_guarded_call@X@@QEAAX$$QEAV<lambda_f2e299630e499de9f9a165e60fcd3db5>@@AEAV<lambda_2ae9d31cdba2644fcbeaf08da7c24588>@@$$QEAV<lambda_40d01ff24d0e7b3814fdbdcee8eab3c7>@@@Z 000000018002df18 f   libucrt:per_thread_data.obj
 0001:0002cf78       ?construct_ptd_array@@YAXQEAU__acrt_ptd@@@Z 000000018002df78 f   libucrt:per_thread_data.obj
 0001:0002d048       ?destroy_fls@@YAXPEAX@Z    000000018002e048 f   libucrt:per_thread_data.obj
 0001:0002d068       ?destroy_ptd_array@@YAXQEAU__acrt_ptd@@@Z 000000018002e068 f   libucrt:per_thread_data.obj
 0001:0002d160       ?replace_current_thread_locale_nolock@@YAXQEAU__acrt_ptd@@QEAU__crt_locale_data@@@Z 000000018002e160 f   libucrt:per_thread_data.obj
 0001:0002d970       ?<lambda_invoker_cdecl>@<lambda_c2303d2482d7c3675ea2e24c4cfb6115>@@CAHPEBX0@Z 000000018002e970 f   libucrt:argv_wildcards.obj
 0001:0002d984       ??$common_expand_argv_wildcards@D@@YAHQEAPEADQEAPEAPEAD@Z 000000018002e984 f   libucrt:argv_wildcards.obj
 0001:0002db90       ??$copy_and_add_argument_to_buffer@D@@YAHQEBD0_KAEAV?$argument_list@D@?A0x5f5c8891@@@Z 000000018002eb90 f   libucrt:argv_wildcards.obj
 0001:0002dd28       ??$expand_argument_wildcards@D@@YAHQEAD0AEAV?$argument_list@D@?A0x5f5c8891@@@Z 000000018002ed28 f   libucrt:argv_wildcards.obj
 0001:0002dedc       ??$?RV<lambda_efdfa57d1f175319df784efa44bb7b81>@@AEAV<lambda_5f0a4c1567f8adc6734073e5d1e1b35c>@@V<lambda_2e8a7d3640ea6ccb4c2413664c2db6fd>@@@?$__crt_seh_guarded_call@X@@QEAAX$$QEAV<lambda_efdfa57d1f175319df784efa44bb7b81>@@AEAV<lambda_5f0a4c1567f8adc6734073e5d1e1b35c>@@$$QEAV<lambda_2e8a7d3640ea6ccb4c2413664c2db6fd>@@@Z 000000018002eedc f   libucrt:mbctype.obj
 0001:0002e0b0       ?getSystemCP@@YAHH@Z       000000018002f0b0 f   libucrt:mbctype.obj
 0001:0002e130       ?setSBCS@@YAXPEAU__crt_multibyte_data@@@Z 000000018002f130 f   libucrt:mbctype.obj
 0001:0002e1c0       ?setSBUpLow@@YAXPEAU__crt_multibyte_data@@@Z 000000018002f1c0 f   libucrt:mbctype.obj
 0001:0002e3a0       ?setmbcp_internal@@YAHH_NQEAU__acrt_ptd@@QEAPEAU__crt_multibyte_data@@@Z 000000018002f3a0 f   libucrt:mbctype.obj
 0001:0002e564       ?update_thread_multibyte_data_internal@@YAPEAU__crt_multibyte_data@@QEAU__acrt_ptd@@QEAPEAU1@@Z 000000018002f564 f   libucrt:mbctype.obj
 0001:0002e958       ?x_ismbbtype_l@@YAHPEAU__crt_locale_pointers@@IHH@Z 000000018002f958 f   libucrt:ismbbyte.obj
 0001:0002ebb0       ?try_get_function@@YAPEAXW4function_id@?A0x391cf84c@@QEBDQEBW4module_id@2@2@Z 000000018002fbb0 f   libucrt:winapi_thunks.obj
 0001:0002f148       ?initialize_inherited_file_handles_nolock@@YAXXZ 0000000180030148 f   libucrt:ioinit.obj
 0001:0002f234       ?initialize_stdio_handles_nolock@@YAXXZ 0000000180030234 f   libucrt:ioinit.obj
 0001:0002f4d4       ??$?RV<lambda_450d765d439847d4c735a33c368b5fc0>@@AEAV<lambda_44731a7d0e6d81c3e6aa82d741081786>@@V<lambda_601a2a7da3b7a96e9554ac7215c4b07c>@@@?$__crt_seh_guarded_call@P6AXH@Z@@QEAAP6AXH@Z$$QEAV<lambda_450d765d439847d4c735a33c368b5fc0>@@AEAV<lambda_44731a7d0e6d81c3e6aa82d741081786>@@$$QEAV<lambda_601a2a7da3b7a96e9554ac7215c4b07c>@@@Z 00000001800304d4 f   libucrt:signal.obj
 0001:0002f838       ??$?RV<lambda_842d9ff0dc9ef11c61343bbaebe7f885>@@AEAV<lambda_c5860995281e5c4ce005b3de8f5874ee>@@V<lambda_d90129c13df834fdcbf8d2b88dafcf2d>@@@?$__crt_seh_guarded_call@X@@QEAAX$$QEAV<lambda_842d9ff0dc9ef11c61343bbaebe7f885>@@AEAV<lambda_c5860995281e5c4ce005b3de8f5874ee>@@$$QEAV<lambda_d90129c13df834fdcbf8d2b88dafcf2d>@@@Z 0000000180030838 f   libucrt:fflush.obj
 0001:0002f8d4       ??$?RV<lambda_886d6c58226a84441f68b9f2b8217b83>@@AEAV<lambda_ab61a845afdef5b7c387490eaf3616ee>@@V<lambda_f7f22ab5edc0698d5f6905b0d3f44752>@@@?$__crt_seh_guarded_call@X@@QEAAX$$QEAV<lambda_886d6c58226a84441f68b9f2b8217b83>@@AEAV<lambda_ab61a845afdef5b7c387490eaf3616ee>@@$$QEAV<lambda_f7f22ab5edc0698d5f6905b0d3f44752>@@@Z 00000001800308d4 f   libucrt:fflush.obj
 0001:0002f9bc       ?common_flush_all@@YAH_N@Z 00000001800309bc f   libucrt:fflush.obj
 0001:0002fe60       ??$?RV<lambda_410d79af7f07d98d83a3f525b3859a53>@@AEAV<lambda_3e16ef9562a7dcce91392c22ab16ea36>@@V<lambda_38119f0e861e05405d8a144b9b982f0a>@@@?$__crt_seh_guarded_call@X@@QEAAX$$QEAV<lambda_410d79af7f07d98d83a3f525b3859a53>@@AEAV<lambda_3e16ef9562a7dcce91392c22ab16ea36>@@$$QEAV<lambda_38119f0e861e05405d8a144b9b982f0a>@@@Z 0000000180030e60 f   libucrt:wsetlocale.obj
 0001:0002ff50       $$000000                   0000000180030f50     libucrt:fpsr.obj
 0001:00030bd4       fallbackMethod             0000000180031bd4 f   libucrt:strpbrk.obj
 0001:00030fa4       $LN78                      0000000180031fa4     libucrt:strpbrk.obj
 0001:00030fe0       $LN77                      0000000180031fe0     libucrt:strpbrk.obj
 0001:00031020       $LN76                      0000000180032020     libucrt:strpbrk.obj
 0001:00031288       ?__acrt_LCMapStringA_stat@@YAHPEAU__crt_locale_pointers@@PEB_WKPEBDHPEADHHH@Z 0000000180032288 f   libucrt:lcmapstringa.obj
 0001:00031638       ?initialize_multibyte@@YAHXZ 0000000180032638 f   libucrt:multibyte_initializer.obj
 0001:00031710       ?GetTableIndexFromLocaleName@@YAHPEB_W@Z 0000000180032710 f   libucrt:lcidtoname_downlevel.obj
 0001:00031b1c       ??$?RV<lambda_a37b2b86f63e897a80ea819b0eb08c01>@@AEAV<lambda_38ce7e780aa69e748d6df282ebc68efe>@@V<lambda_99fb1378e971ab6e7edea83e3a7a83a2>@@@?$__crt_seh_guarded_call@H@@QEAAH$$QEAV<lambda_a37b2b86f63e897a80ea819b0eb08c01>@@AEAV<lambda_38ce7e780aa69e748d6df282ebc68efe>@@$$QEAV<lambda_99fb1378e971ab6e7edea83e3a7a83a2>@@@Z 0000000180032b1c f   libucrt:commit.obj
 0001:00031c3c       ?write_double_translated_ansi_nolock@@YA?AUwrite_result@?A0x17268360@@HQEBDI@Z 0000000180032c3c f   libucrt:write.obj
 0001:00031e60       ?write_text_ansi_nolock@@YA?AUwrite_result@?A0x17268360@@HQEBDI@Z 0000000180032e60 f   libucrt:write.obj
 0001:00031f64       ?write_text_utf16le_nolock@@YA?AUwrite_result@?A0x17268360@@HQEBDI@Z 0000000180032f64 f   libucrt:write.obj
 0001:00032080       ?write_text_utf8_nolock@@YA?AUwrite_result@?A0x17268360@@HQEBDI@Z 0000000180033080 f   libucrt:write.obj
 0001:00032938       ?free_crt_array_internal@@YAXQEAPEBX_K@Z 0000000180033938 f   libucrt:inittime.obj
 0001:00032ab4       ??$common_lseek_nolock@_J@@YA_JH_JH@Z 0000000180033ab4 f   libucrt:lseek.obj
 0001:00032c80       $$000000                   0000000180033c80     libucrt:log10.obj
 0001:0003335c       ??$?RV<lambda_751a882b2c74d4b022dec766aa51a29a>@@AEAV<lambda_628dfdc04ba53c8bfc02c9951375f3f5>@@V<lambda_f6c7be5f7998530c34de24c7437d6b54>@@@?$__crt_seh_guarded_call@H@@QEAAH$$QEAV<lambda_751a882b2c74d4b022dec766aa51a29a>@@AEAV<lambda_628dfdc04ba53c8bfc02c9951375f3f5>@@$$QEAV<lambda_f6c7be5f7998530c34de24c7437d6b54>@@@Z 000000018003435c f   libucrt:close.obj
 0001:00033570       _log_special_common        0000000180034570 f   libucrt:log_special.obj
 0001:00033760       $$000000                   0000000180034760     LIBCMT:amdsecgs.obj
 0001:0003394c       capture_current_context    000000018003494c f   LIBCMT:gs_report.obj
 0001:000339bc       capture_previous_context   00000001800349bc f   LIBCMT:gs_report.obj
 0001:00033a30       $$000000                   0000000180034a30     LIBCMT:chkstk.obj
 0001:00033aa0       $$000000                   0000000180034aa0     libvcruntime:memcmp.obj
 0001:00033b80       $$000000                   0000000180034b80     LIBCMT:guard_dispatch.obj
 0001:00033ba0       ?fin$0@?0??dllmain_crt_process_attach@@YAHQEAUHINSTANCE__@@QEAX@Z@4HA 0000000180034ba0 f   LIBCMT:dll_dllmain.obj
 0001:00033bb7       ?fin$0@?0??dllmain_crt_process_detach@@YAH_N@Z@4HA 0000000180034bb7 f   LIBCMT:dll_dllmain.obj
 0001:00033bd0       ?fin$1@?0??dllmain_crt_process_detach@@YAH_N@Z@4HA 0000000180034bd0 f   LIBCMT:dll_dllmain.obj
 0001:00033be4       ?filt$0@?0??dllmain_dispatch@@YAHQEAUHINSTANCE__@@KQEAX@Z@4HA 0000000180034be4 f   LIBCMT:dll_dllmain.obj
 0001:00033c1a       __scrt_is_nonwritable_in_current_image$filt$0 0000000180034c1a f   LIBCMT:utility.obj
 0001:00033c32       __DestructExceptionObject$filt$0 0000000180034c32 f   libvcruntime:ehhelpers.obj
 0001:00033cc8       ?fin$0@?0???$?RV<lambda_0ae27a3a962d80f24befdcbee591983d>@@AEAV<lambda_8d0ee55de4b1038c4002e0adecdf1839>@@V<lambda_dc504788e8f1664fe9b84e20bfb512f2>@@@?$__crt_seh_guarded_call@X@@QEAAX$$QEAV<lambda_0ae27a3a962d80f24befdcbee591983d>@@AEAV<lambda_8d0ee55de4b1038c4002e0adecdf1839>@@$$QEAV<lambda_dc504788e8f1664fe9b84e20bfb512f2>@@@Z@4HA 0000000180034cc8 f   libucrt:per_thread_data.obj
 0001:00033cc8       ?fin$0@?0???$?RV<lambda_2d41944a1d46af3157314b8a01080d33>@@AEAV<lambda_8f455de75cd7d7f24b4096f044d8b9e6>@@V<lambda_aa500f224e6afead328df44964fe2772>@@@?$__crt_seh_guarded_call@X@@QEAAX$$QEAV<lambda_2d41944a1d46af3157314b8a01080d33>@@AEAV<lambda_8f455de75cd7d7f24b4096f044d8b9e6>@@$$QEAV<lambda_aa500f224e6afead328df44964fe2772>@@@Z@4HA 0000000180034cc8 f   libucrt:per_thread_data.obj
 0001:00033cc8       ?fin$0@?0???$?RV<lambda_aa87e3671a710a21b5dc78c0bdf72e11>@@AEAV<lambda_92619d2358a28f41a33ba319515a20b9>@@V<lambda_6992ecaafeb10aed2b74cb1fae11a551>@@@?$__crt_seh_guarded_call@X@@QEAAX$$QEAV<lambda_aa87e3671a710a21b5dc78c0bdf72e11>@@AEAV<lambda_92619d2358a28f41a33ba319515a20b9>@@$$QEAV<lambda_6992ecaafeb10aed2b74cb1fae11a551>@@@Z@4HA 0000000180034cc8 f   libucrt:per_thread_data.obj
 0001:00033cc8       ?fin$0@?0???$?RV<lambda_f2e299630e499de9f9a165e60fcd3db5>@@AEAV<lambda_2ae9d31cdba2644fcbeaf08da7c24588>@@V<lambda_40d01ff24d0e7b3814fdbdcee8eab3c7>@@@?$__crt_seh_guarded_call@X@@QEAAX$$QEAV<lambda_f2e299630e499de9f9a165e60fcd3db5>@@AEAV<lambda_2ae9d31cdba2644fcbeaf08da7c24588>@@$$QEAV<lambda_40d01ff24d0e7b3814fdbdcee8eab3c7>@@@Z@4HA 0000000180034cc8 f   libucrt:per_thread_data.obj
 0001:00033cc8       ?fin$0@?0???$?RV<lambda_efdfa57d1f175319df784efa44bb7b81>@@AEAV<lambda_5f0a4c1567f8adc6734073e5d1e1b35c>@@V<lambda_2e8a7d3640ea6ccb4c2413664c2db6fd>@@@?$__crt_seh_guarded_call@X@@QEAAX$$QEAV<lambda_efdfa57d1f175319df784efa44bb7b81>@@AEAV<lambda_5f0a4c1567f8adc6734073e5d1e1b35c>@@$$QEAV<lambda_2e8a7d3640ea6ccb4c2413664c2db6fd>@@@Z@4HA 0000000180034cc8 f   libucrt:mbctype.obj
 0001:00033cc8       ?fin$0@?0???$?RV<lambda_450d765d439847d4c735a33c368b5fc0>@@AEAV<lambda_44731a7d0e6d81c3e6aa82d741081786>@@V<lambda_601a2a7da3b7a96e9554ac7215c4b07c>@@@?$__crt_seh_guarded_call@P6AXH@Z@@QEAAP6AXH@Z$$QEAV<lambda_450d765d439847d4c735a33c368b5fc0>@@AEAV<lambda_44731a7d0e6d81c3e6aa82d741081786>@@$$QEAV<lambda_601a2a7da3b7a96e9554ac7215c4b07c>@@@Z@4HA 0000000180034cc8 f   libucrt:signal.obj
 0001:00033cc8       ?fin$0@?0???$?RV<lambda_d80eeec6fff315bfe5c115232f3240e3>@@AEAV<lambda_6e4b09c48022b2350581041d5f6b0c4c>@@V<lambda_2358e3775559c9db80273638284d5e45>@@@?$__crt_seh_guarded_call@X@@QEAAX$$QEAV<lambda_d80eeec6fff315bfe5c115232f3240e3>@@AEAV<lambda_6e4b09c48022b2350581041d5f6b0c4c>@@$$QEAV<lambda_2358e3775559c9db80273638284d5e45>@@@Z@4HA 0000000180034cc8 f   libucrt:exit.obj
 0001:00033cc8       ?fin$0@?0???$?RV<lambda_7777bce6b2f8c936911f934f8298dc43>@@AEAV<lambda_f03950bc5685219e0bcd2087efbe011e>@@V<lambda_3883c3dff614d5e0c5f61bb1ac94921c>@@@?$__crt_seh_guarded_call@H@@QEAAH$$QEAV<lambda_7777bce6b2f8c936911f934f8298dc43>@@AEAV<lambda_f03950bc5685219e0bcd2087efbe011e>@@$$QEAV<lambda_3883c3dff614d5e0c5f61bb1ac94921c>@@@Z@4HA 0000000180034cc8 f   libucrt:onexit.obj
 0001:00033ce2       ?filt$0@?0???R<lambda_6e4b09c48022b2350581041d5f6b0c4c>@@QEBA@XZ@4HA 0000000180034ce2 f   libucrt:exit.obj
 0001:00033cfd       _ctrlfp$filt$0             0000000180034cfd f   libucrt:fpctrl.obj
 0001:00033d29       ?fin$0@?0??update_thread_multibyte_data_internal@@YAPEAU__crt_multibyte_data@@QEAU__acrt_ptd@@QEAPEAU1@@Z@4HA 0000000180034d29 f   libucrt:mbctype.obj
 0001:00033d42       __acrt_initialize_lowio$fin$0 0000000180034d42 f   libucrt:ioinit.obj
 0001:00033d42       __acrt_lowio_ensure_fh_exists$fin$0 0000000180034d42 f   libucrt:osfinfo.obj
 0001:00033d5b       _query_new_handler$fin$0   0000000180034d5b f   libucrt:new_handler.obj
 0001:00033d71       raise$fin$0                0000000180034d71 f   libucrt:signal.obj
 0001:00033d92       ?fin$0@?0???$?RV<lambda_842d9ff0dc9ef11c61343bbaebe7f885>@@AEAV<lambda_c5860995281e5c4ce005b3de8f5874ee>@@V<lambda_d90129c13df834fdcbf8d2b88dafcf2d>@@@?$__crt_seh_guarded_call@X@@QEAAX$$QEAV<lambda_842d9ff0dc9ef11c61343bbaebe7f885>@@AEAV<lambda_c5860995281e5c4ce005b3de8f5874ee>@@$$QEAV<lambda_d90129c13df834fdcbf8d2b88dafcf2d>@@@Z@4HA 0000000180034d92 f   libucrt:fflush.obj
 0001:00033dad       ?fin$0@?0???$?RV<lambda_886d6c58226a84441f68b9f2b8217b83>@@AEAV<lambda_ab61a845afdef5b7c387490eaf3616ee>@@V<lambda_f7f22ab5edc0698d5f6905b0d3f44752>@@@?$__crt_seh_guarded_call@X@@QEAAX$$QEAV<lambda_886d6c58226a84441f68b9f2b8217b83>@@AEAV<lambda_ab61a845afdef5b7c387490eaf3616ee>@@$$QEAV<lambda_f7f22ab5edc0698d5f6905b0d3f44752>@@@Z@4HA 0000000180034dad f   libucrt:fflush.obj
 0001:00033dca       ?fin$0@?0???$?RV<lambda_410d79af7f07d98d83a3f525b3859a53>@@AEAV<lambda_3e16ef9562a7dcce91392c22ab16ea36>@@V<lambda_38119f0e861e05405d8a144b9b982f0a>@@@?$__crt_seh_guarded_call@X@@QEAAX$$QEAV<lambda_410d79af7f07d98d83a3f525b3859a53>@@AEAV<lambda_3e16ef9562a7dcce91392c22ab16ea36>@@$$QEAV<lambda_38119f0e861e05405d8a144b9b982f0a>@@@Z@4HA 0000000180034dca f   libucrt:wsetlocale.obj
 0001:00033de4       __acrt_update_thread_locale_data$fin$0 0000000180034de4 f   libucrt:locale_refcounting.obj
 0001:00033dfd       ?fin$0@?0???$?RV<lambda_751a882b2c74d4b022dec766aa51a29a>@@AEAV<lambda_628dfdc04ba53c8bfc02c9951375f3f5>@@V<lambda_f6c7be5f7998530c34de24c7437d6b54>@@@?$__crt_seh_guarded_call@H@@QEAAH$$QEAV<lambda_751a882b2c74d4b022dec766aa51a29a>@@AEAV<lambda_628dfdc04ba53c8bfc02c9951375f3f5>@@$$QEAV<lambda_f6c7be5f7998530c34de24c7437d6b54>@@@Z@4HA 0000000180034dfd f   libucrt:close.obj
 0001:00033dfd       ?fin$0@?0???$?RV<lambda_a37b2b86f63e897a80ea819b0eb08c01>@@AEAV<lambda_38ce7e780aa69e748d6df282ebc68efe>@@V<lambda_99fb1378e971ab6e7edea83e3a7a83a2>@@@?$__crt_seh_guarded_call@H@@QEAAH$$QEAV<lambda_a37b2b86f63e897a80ea819b0eb08c01>@@AEAV<lambda_38ce7e780aa69e748d6df282ebc68efe>@@$$QEAV<lambda_99fb1378e971ab6e7edea83e3a7a83a2>@@@Z@4HA 0000000180034dfd f   libucrt:commit.obj
 0001:00033e17       _write$fin$0               0000000180034e17 f   libucrt:write.obj
 0001:00033e2e       _fcloseall$fin$0           0000000180034e2e f   libucrt:closeall.obj
 0001:00033e47       fclose$fin$0               0000000180034e47 f   libucrt:fclose.obj
 0001:00033e60       _IsNonwritableInCurrentImage$filt$0 0000000180034e60 f   LIBCMT:pesect.obj
 0002:000003a0       $SG8364                    00000001800353a0     biquad_lpf_1.o
 0002:000003b4       $SG8365                    00000001800353b4     biquad_lpf_1.o
 0002:000003b8       $SG8366                    00000001800353b8     biquad_lpf_1.o
 0002:000003d4       $SG8159                    00000001800353d4     biquad_lpf_1.o
 0002:000003dc       $SG8161                    00000001800353dc     biquad_lpf_1.o
 0002:000003e0       $SG8367                    00000001800353e0     biquad_lpf_1.o
 0002:000003ec       $SG8162                    00000001800353ec     biquad_lpf_1.o
 0002:000003f0       $SG8158                    00000001800353f0     biquad_lpf_1.o
 0002:000003fc       $SG8160                    00000001800353fc     biquad_lpf_1.o
 0002:00000404       $SG8167                    0000000180035404     biquad_lpf_1.o
 0002:00000408       $SG8165                    0000000180035408     biquad_lpf_1.o
 0002:00000414       $SG8166                    0000000180035414     biquad_lpf_1.o
 0002:0000041c       $SG8168                    000000018003541c     biquad_lpf_1.o
 0002:00000428       $SG8376                    0000000180035428     biquad_lpf_2.o
 0002:0000043c       $SG8377                    000000018003543c     biquad_lpf_2.o
 0002:00000440       $SG8378                    0000000180035440     biquad_lpf_2.o
 0002:0000045c       $SG8159                    000000018003545c     biquad_lpf_2.o
 0002:00000464       $SG8161                    0000000180035464     biquad_lpf_2.o
 0002:00000468       $SG8379                    0000000180035468     biquad_lpf_2.o
 0002:00000474       $SG8162                    0000000180035474     biquad_lpf_2.o
 0002:00000478       $SG8158                    0000000180035478     biquad_lpf_2.o
 0002:00000484       $SG8160                    0000000180035484     biquad_lpf_2.o
 0002:0000048c       $SG8167                    000000018003548c     biquad_lpf_2.o
 0002:00000490       $SG8165                    0000000180035490     biquad_lpf_2.o
 0002:0000049c       $SG8166                    000000018003549c     biquad_lpf_2.o
 0002:000004a4       $SG8168                    00000001800354a4     biquad_lpf_2.o
 0002:000004a8       $SG8376                    00000001800354a8     biquad_lpf_3.o
 0002:000004bc       $SG8377                    00000001800354bc     biquad_lpf_3.o
 0002:000004c0       $SG8378                    00000001800354c0     biquad_lpf_3.o
 0002:000004dc       $SG8159                    00000001800354dc     biquad_lpf_3.o
 0002:000004e4       $SG8161                    00000001800354e4     biquad_lpf_3.o
 0002:000004e8       $SG8379                    00000001800354e8     biquad_lpf_3.o
 0002:000004f4       $SG8162                    00000001800354f4     biquad_lpf_3.o
 0002:000004f8       $SG8158                    00000001800354f8     biquad_lpf_3.o
 0002:00000504       $SG8160                    0000000180035504     biquad_lpf_3.o
 0002:0000050c       $SG8167                    000000018003550c     biquad_lpf_3.o
 0002:00000510       $SG8165                    0000000180035510     biquad_lpf_3.o
 0002:0000051c       $SG8166                    000000018003551c     biquad_lpf_3.o
 0002:00000524       $SG8168                    0000000180035524     biquad_lpf_3.o
 0002:00000528       $SG8376                    0000000180035528     biquad_lpf_4.o
 0002:0000053c       $SG8377                    000000018003553c     biquad_lpf_4.o
 0002:00000540       $SG8378                    0000000180035540     biquad_lpf_4.o
 0002:0000055c       $SG8159                    000000018003555c     biquad_lpf_4.o
 0002:00000564       $SG8161                    0000000180035564     biquad_lpf_4.o
 0002:00000568       $SG8379                    0000000180035568     biquad_lpf_4.o
 0002:00000574       $SG8162                    0000000180035574     biquad_lpf_4.o
 0002:00000578       $SG8158                    0000000180035578     biquad_lpf_4.o
 0002:00000584       $SG8160                    0000000180035584     biquad_lpf_4.o
 0002:0000058c       $SG8167                    000000018003558c     biquad_lpf_4.o
 0002:00000590       $SG8165                    0000000180035590     biquad_lpf_4.o
 0002:0000059c       $SG8166                    000000018003559c     biquad_lpf_4.o
 0002:000005a4       $SG8168                    00000001800355a4     biquad_lpf_4.o
 0002:000005a8       $SG8364                    00000001800355a8     biquad_hpf_1.o
 0002:000005bc       $SG8365                    00000001800355bc     biquad_hpf_1.o
 0002:000005c0       $SG8366                    00000001800355c0     biquad_hpf_1.o
 0002:000005dc       $SG8161                    00000001800355dc     biquad_hpf_1.o
 0002:000005e0       $SG8367                    00000001800355e0     biquad_hpf_1.o
 0002:000005ec       $SG8159                    00000001800355ec     biquad_hpf_1.o
 0002:000005f4       $SG8162                    00000001800355f4     biquad_hpf_1.o
 0002:000005f8       $SG8158                    00000001800355f8     biquad_hpf_1.o
 0002:00000604       $SG8160                    0000000180035604     biquad_hpf_1.o
 0002:0000060c       $SG8167                    000000018003560c     biquad_hpf_1.o
 0002:00000610       $SG8165                    0000000180035610     biquad_hpf_1.o
 0002:0000061c       $SG8166                    000000018003561c     biquad_hpf_1.o
 0002:00000624       $SG8168                    0000000180035624     biquad_hpf_1.o
 0002:00000628       $SG8376                    0000000180035628     biquad_hpf_2.o
 0002:0000063c       $SG8377                    000000018003563c     biquad_hpf_2.o
 0002:00000640       $SG8378                    0000000180035640     biquad_hpf_2.o
 0002:0000065c       $SG8161                    000000018003565c     biquad_hpf_2.o
 0002:00000660       $SG8379                    0000000180035660     biquad_hpf_2.o
 0002:0000066c       $SG8159                    000000018003566c     biquad_hpf_2.o
 0002:00000674       $SG8162                    0000000180035674     biquad_hpf_2.o
 0002:00000678       $SG8158                    0000000180035678     biquad_hpf_2.o
 0002:00000684       $SG8160                    0000000180035684     biquad_hpf_2.o
 0002:0000068c       $SG8167                    000000018003568c     biquad_hpf_2.o
 0002:00000690       $SG8165                    0000000180035690     biquad_hpf_2.o
 0002:0000069c       $SG8166                    000000018003569c     biquad_hpf_2.o
 0002:000006a4       $SG8168                    00000001800356a4     biquad_hpf_2.o
 0002:000006a8       $SG8376                    00000001800356a8     biquad_hpf_3.o
 0002:000006bc       $SG8377                    00000001800356bc     biquad_hpf_3.o
 0002:000006c0       $SG8378                    00000001800356c0     biquad_hpf_3.o
 0002:000006dc       $SG8161                    00000001800356dc     biquad_hpf_3.o
 0002:000006e0       $SG8379                    00000001800356e0     biquad_hpf_3.o
 0002:000006ec       $SG8159                    00000001800356ec     biquad_hpf_3.o
 0002:000006f4       $SG8162                    00000001800356f4     biquad_hpf_3.o
 0002:000006f8       $SG8158                    00000001800356f8     biquad_hpf_3.o
 0002:00000704       $SG8160                    0000000180035704     biquad_hpf_3.o
 0002:0000070c       $SG8167                    000000018003570c     biquad_hpf_3.o
 0002:00000710       $SG8165                    0000000180035710     biquad_hpf_3.o
 0002:0000071c       $SG8166                    000000018003571c     biquad_hpf_3.o
 0002:00000724       $SG8168                    0000000180035724     biquad_hpf_3.o
 0002:00000728       $SG8376                    0000000180035728     biquad_hpf_4.o
 0002:0000073c       $SG8377                    000000018003573c     biquad_hpf_4.o
 0002:00000740       $SG8378                    0000000180035740     biquad_hpf_4.o
 0002:0000075c       $SG8161                    000000018003575c     biquad_hpf_4.o
 0002:00000760       $SG8379                    0000000180035760     biquad_hpf_4.o
 0002:0000076c       $SG8159                    000000018003576c     biquad_hpf_4.o
 0002:00000774       $SG8162                    0000000180035774     biquad_hpf_4.o
 0002:00000778       $SG8158                    0000000180035778     biquad_hpf_4.o
 0002:00000784       $SG8160                    0000000180035784     biquad_hpf_4.o
 0002:0000078c       $SG8167                    000000018003578c     biquad_hpf_4.o
 0002:00000790       $SG8165                    0000000180035790     biquad_hpf_4.o
 0002:0000079c       $SG8166                    000000018003579c     biquad_hpf_4.o
 0002:000007a4       $SG8168                    00000001800357a4     biquad_hpf_4.o
 0002:000007a8       $SG8364                    00000001800357a8     biquad_bpf_1.o
 0002:000007bc       $SG8365                    00000001800357bc     biquad_bpf_1.o
 0002:000007c0       $SG8366                    00000001800357c0     biquad_bpf_1.o
 0002:000007dc       $SG8161                    00000001800357dc     biquad_bpf_1.o
 0002:000007e0       $SG8367                    00000001800357e0     biquad_bpf_1.o
 0002:000007ec       $SG8159                    00000001800357ec     biquad_bpf_1.o
 0002:000007f4       $SG8162                    00000001800357f4     biquad_bpf_1.o
 0002:000007f8       $SG8158                    00000001800357f8     biquad_bpf_1.o
 0002:00000804       $SG8160                    0000000180035804     biquad_bpf_1.o
 0002:0000080c       $SG8167                    000000018003580c     biquad_bpf_1.o
 0002:00000810       $SG8165                    0000000180035810     biquad_bpf_1.o
 0002:0000081c       $SG8166                    000000018003581c     biquad_bpf_1.o
 0002:00000824       $SG8168                    0000000180035824     biquad_bpf_1.o
 0002:00000828       $SG8376                    0000000180035828     biquad_bpf_2.o
 0002:0000083c       $SG8377                    000000018003583c     biquad_bpf_2.o
 0002:00000840       $SG8378                    0000000180035840     biquad_bpf_2.o
 0002:0000085c       $SG8161                    000000018003585c     biquad_bpf_2.o
 0002:00000860       $SG8379                    0000000180035860     biquad_bpf_2.o
 0002:0000086c       $SG8159                    000000018003586c     biquad_bpf_2.o
 0002:00000874       $SG8162                    0000000180035874     biquad_bpf_2.o
 0002:00000878       $SG8158                    0000000180035878     biquad_bpf_2.o
 0002:00000884       $SG8160                    0000000180035884     biquad_bpf_2.o
 0002:0000088c       $SG8167                    000000018003588c     biquad_bpf_2.o
 0002:00000890       $SG8165                    0000000180035890     biquad_bpf_2.o
 0002:0000089c       $SG8166                    000000018003589c     biquad_bpf_2.o
 0002:000008a4       $SG8168                    00000001800358a4     biquad_bpf_2.o
 0002:000008a8       $SG8376                    00000001800358a8     biquad_bpf_3.o
 0002:000008bc       $SG8377                    00000001800358bc     biquad_bpf_3.o
 0002:000008c0       $SG8378                    00000001800358c0     biquad_bpf_3.o
 0002:000008dc       $SG8161                    00000001800358dc     biquad_bpf_3.o
 0002:000008e0       $SG8379                    00000001800358e0     biquad_bpf_3.o
 0002:000008ec       $SG8159                    00000001800358ec     biquad_bpf_3.o
 0002:000008f4       $SG8162                    00000001800358f4     biquad_bpf_3.o
 0002:000008f8       $SG8158                    00000001800358f8     biquad_bpf_3.o
 0002:00000904       $SG8160                    0000000180035904     biquad_bpf_3.o
 0002:0000090c       $SG8167                    000000018003590c     biquad_bpf_3.o
 0002:00000910       $SG8165                    0000000180035910     biquad_bpf_3.o
 0002:0000091c       $SG8166                    000000018003591c     biquad_bpf_3.o
 0002:00000924       $SG8168                    0000000180035924     biquad_bpf_3.o
 0002:00000928       $SG8376                    0000000180035928     biquad_bpf_4.o
 0002:0000093c       $SG8377                    000000018003593c     biquad_bpf_4.o
 0002:00000940       $SG8378                    0000000180035940     biquad_bpf_4.o
 0002:0000095c       $SG8161                    000000018003595c     biquad_bpf_4.o
 0002:00000960       $SG8379                    0000000180035960     biquad_bpf_4.o
 0002:0000096c       $SG8159                    000000018003596c     biquad_bpf_4.o
 0002:00000974       $SG8162                    0000000180035974     biquad_bpf_4.o
 0002:00000978       $SG8158                    0000000180035978     biquad_bpf_4.o
 0002:00000984       $SG8160                    0000000180035984     biquad_bpf_4.o
 0002:0000098c       $SG8167                    000000018003598c     biquad_bpf_4.o
 0002:00000990       $SG8165                    0000000180035990     biquad_bpf_4.o
 0002:0000099c       $SG8166                    000000018003599c     biquad_bpf_4.o
 0002:000009a4       $SG8168                    00000001800359a4     biquad_bpf_4.o
 0002:000009a8       $SG8364                    00000001800359a8     biquad_brf_1.o
 0002:000009bc       $SG8365                    00000001800359bc     biquad_brf_1.o
 0002:000009c0       $SG8366                    00000001800359c0     biquad_brf_1.o
 0002:000009dc       $SG8161                    00000001800359dc     biquad_brf_1.o
 0002:000009e0       $SG8367                    00000001800359e0     biquad_brf_1.o
 0002:000009ec       $SG8159                    00000001800359ec     biquad_brf_1.o
 0002:000009f4       $SG8162                    00000001800359f4     biquad_brf_1.o
 0002:000009f8       $SG8158                    00000001800359f8     biquad_brf_1.o
 0002:00000a04       $SG8160                    0000000180035a04     biquad_brf_1.o
 0002:00000a0c       $SG8167                    0000000180035a0c     biquad_brf_1.o
 0002:00000a10       $SG8165                    0000000180035a10     biquad_brf_1.o
 0002:00000a1c       $SG8166                    0000000180035a1c     biquad_brf_1.o
 0002:00000a24       $SG8168                    0000000180035a24     biquad_brf_1.o
 0002:00000a28       $SG8376                    0000000180035a28     biquad_brf_2.o
 0002:00000a3c       $SG8377                    0000000180035a3c     biquad_brf_2.o
 0002:00000a40       $SG8378                    0000000180035a40     biquad_brf_2.o
 0002:00000a5c       $SG8161                    0000000180035a5c     biquad_brf_2.o
 0002:00000a60       $SG8379                    0000000180035a60     biquad_brf_2.o
 0002:00000a6c       $SG8159                    0000000180035a6c     biquad_brf_2.o
 0002:00000a74       $SG8162                    0000000180035a74     biquad_brf_2.o
 0002:00000a78       $SG8158                    0000000180035a78     biquad_brf_2.o
 0002:00000a84       $SG8160                    0000000180035a84     biquad_brf_2.o
 0002:00000a8c       $SG8167                    0000000180035a8c     biquad_brf_2.o
 0002:00000a90       $SG8165                    0000000180035a90     biquad_brf_2.o
 0002:00000a9c       $SG8166                    0000000180035a9c     biquad_brf_2.o
 0002:00000aa4       $SG8168                    0000000180035aa4     biquad_brf_2.o
 0002:00000aa8       $SG8376                    0000000180035aa8     biquad_brf_3.o
 0002:00000abc       $SG8377                    0000000180035abc     biquad_brf_3.o
 0002:00000ac0       $SG8378                    0000000180035ac0     biquad_brf_3.o
 0002:00000adc       $SG8161                    0000000180035adc     biquad_brf_3.o
 0002:00000ae0       $SG8379                    0000000180035ae0     biquad_brf_3.o
 0002:00000aec       $SG8159                    0000000180035aec     biquad_brf_3.o
 0002:00000af4       $SG8162                    0000000180035af4     biquad_brf_3.o
 0002:00000af8       $SG8158                    0000000180035af8     biquad_brf_3.o
 0002:00000b04       $SG8160                    0000000180035b04     biquad_brf_3.o
 0002:00000b0c       $SG8167                    0000000180035b0c     biquad_brf_3.o
 0002:00000b10       $SG8165                    0000000180035b10     biquad_brf_3.o
 0002:00000b1c       $SG8166                    0000000180035b1c     biquad_brf_3.o
 0002:00000b24       $SG8168                    0000000180035b24     biquad_brf_3.o
 0002:00000b28       $SG8376                    0000000180035b28     biquad_brf_4.o
 0002:00000b3c       $SG8377                    0000000180035b3c     biquad_brf_4.o
 0002:00000b40       $SG8378                    0000000180035b40     biquad_brf_4.o
 0002:00000b5c       $SG8161                    0000000180035b5c     biquad_brf_4.o
 0002:00000b60       $SG8379                    0000000180035b60     biquad_brf_4.o
 0002:00000b6c       $SG8159                    0000000180035b6c     biquad_brf_4.o
 0002:00000b74       $SG8162                    0000000180035b74     biquad_brf_4.o
 0002:00000b78       $SG8158                    0000000180035b78     biquad_brf_4.o
 0002:00000b84       $SG8160                    0000000180035b84     biquad_brf_4.o
 0002:00000b8c       $SG8167                    0000000180035b8c     biquad_brf_4.o
 0002:00000b90       $SG8165                    0000000180035b90     biquad_brf_4.o
 0002:00000b9c       $SG8166                    0000000180035b9c     biquad_brf_4.o
 0002:00000ba4       $SG8168                    0000000180035ba4     biquad_brf_4.o
 0002:00000ba8       $SG8368                    0000000180035ba8     biquad_peq_1.o
 0002:00000bbc       $SG8369                    0000000180035bbc     biquad_peq_1.o
 0002:00000bc0       $SG8370                    0000000180035bc0     biquad_peq_1.o
 0002:00000bd8       $SG8371                    0000000180035bd8     biquad_peq_1.o
 0002:00000be4       $SG8159                    0000000180035be4     biquad_peq_1.o
 0002:00000bec       $SG8161                    0000000180035bec     biquad_peq_1.o
 0002:00000bf0       $SG8158                    0000000180035bf0     biquad_peq_1.o
 0002:00000bfc       $SG8160                    0000000180035bfc     biquad_peq_1.o
 0002:00000c04       $SG8162                    0000000180035c04     biquad_peq_1.o
 0002:00000c08       $SG8163                    0000000180035c08     biquad_peq_1.o
 0002:00000c10       $SG8166                    0000000180035c10     biquad_peq_1.o
 0002:00000c1c       $SG8167                    0000000180035c1c     biquad_peq_1.o
 0002:00000c24       $SG8168                    0000000180035c24     biquad_peq_1.o
 0002:00000c28       $SG8169                    0000000180035c28     biquad_peq_1.o
 0002:00000c40       $SG8379                    0000000180035c40     biquad_peq_2.o
 0002:00000c54       $SG8380                    0000000180035c54     biquad_peq_2.o
 0002:00000c58       $SG8381                    0000000180035c58     biquad_peq_2.o
 0002:00000c70       $SG8382                    0000000180035c70     biquad_peq_2.o
 0002:00000c7c       $SG8159                    0000000180035c7c     biquad_peq_2.o
 0002:00000c84       $SG8161                    0000000180035c84     biquad_peq_2.o
 0002:00000c88       $SG8158                    0000000180035c88     biquad_peq_2.o
 0002:00000c94       $SG8160                    0000000180035c94     biquad_peq_2.o
 0002:00000c9c       $SG8162                    0000000180035c9c     biquad_peq_2.o
 0002:00000ca0       $SG8163                    0000000180035ca0     biquad_peq_2.o
 0002:00000ca8       $SG8166                    0000000180035ca8     biquad_peq_2.o
 0002:00000cb4       $SG8167                    0000000180035cb4     biquad_peq_2.o
 0002:00000cbc       $SG8168                    0000000180035cbc     biquad_peq_2.o
 0002:00000cc0       $SG8169                    0000000180035cc0     biquad_peq_2.o
 0002:00000cc8       $SG8379                    0000000180035cc8     biquad_peq_3.o
 0002:00000cdc       $SG8380                    0000000180035cdc     biquad_peq_3.o
 0002:00000ce0       $SG8381                    0000000180035ce0     biquad_peq_3.o
 0002:00000cf8       $SG8382                    0000000180035cf8     biquad_peq_3.o
 0002:00000d04       $SG8159                    0000000180035d04     biquad_peq_3.o
 0002:00000d0c       $SG8161                    0000000180035d0c     biquad_peq_3.o
 0002:00000d10       $SG8158                    0000000180035d10     biquad_peq_3.o
 0002:00000d1c       $SG8160                    0000000180035d1c     biquad_peq_3.o
 0002:00000d24       $SG8162                    0000000180035d24     biquad_peq_3.o
 0002:00000d28       $SG8163                    0000000180035d28     biquad_peq_3.o
 0002:00000d30       $SG8166                    0000000180035d30     biquad_peq_3.o
 0002:00000d3c       $SG8167                    0000000180035d3c     biquad_peq_3.o
 0002:00000d44       $SG8168                    0000000180035d44     biquad_peq_3.o
 0002:00000d48       $SG8169                    0000000180035d48     biquad_peq_3.o
 0002:00000d50       $SG8379                    0000000180035d50     biquad_peq_4.o
 0002:00000d64       $SG8380                    0000000180035d64     biquad_peq_4.o
 0002:00000d68       $SG8381                    0000000180035d68     biquad_peq_4.o
 0002:00000d80       $SG8382                    0000000180035d80     biquad_peq_4.o
 0002:00000d8c       $SG8159                    0000000180035d8c     biquad_peq_4.o
 0002:00000d94       $SG8161                    0000000180035d94     biquad_peq_4.o
 0002:00000d98       $SG8158                    0000000180035d98     biquad_peq_4.o
 0002:00000da4       $SG8160                    0000000180035da4     biquad_peq_4.o
 0002:00000dac       $SG8162                    0000000180035dac     biquad_peq_4.o
 0002:00000db0       $SG8163                    0000000180035db0     biquad_peq_4.o
 0002:00000db8       $SG8166                    0000000180035db8     biquad_peq_4.o
 0002:00000dc4       $SG8167                    0000000180035dc4     biquad_peq_4.o
 0002:00000dcc       $SG8168                    0000000180035dcc     biquad_peq_4.o
 0002:00000dd0       $SG8169                    0000000180035dd0     biquad_peq_4.o
 0002:00000dd8       $SG8367                    0000000180035dd8     biquad_lsh_1.o
 0002:00000dec       $SG8368                    0000000180035dec     biquad_lsh_1.o
 0002:00000df0       $SG8369                    0000000180035df0     biquad_lsh_1.o
 0002:00000e04       $SG8161                    0000000180035e04     biquad_lsh_1.o
 0002:00000e08       $SG8370                    0000000180035e08     biquad_lsh_1.o
 0002:00000e14       $SG8159                    0000000180035e14     biquad_lsh_1.o
 0002:00000e1c       $SG8162                    0000000180035e1c     biquad_lsh_1.o
 0002:00000e20       $SG8158                    0000000180035e20     biquad_lsh_1.o
 0002:00000e2c       $SG8160                    0000000180035e2c     biquad_lsh_1.o
 0002:00000e34       $SG8163                    0000000180035e34     biquad_lsh_1.o
 0002:00000e3c       $SG8168                    0000000180035e3c     biquad_lsh_1.o
 0002:00000e40       $SG8166                    0000000180035e40     biquad_lsh_1.o
 0002:00000e4c       $SG8167                    0000000180035e4c     biquad_lsh_1.o
 0002:00000e54       $SG8169                    0000000180035e54     biquad_lsh_1.o
 0002:00000e60       $SG8379                    0000000180035e60     biquad_lsh_2.o
 0002:00000e74       $SG8380                    0000000180035e74     biquad_lsh_2.o
 0002:00000e78       $SG8381                    0000000180035e78     biquad_lsh_2.o
 0002:00000e8c       $SG8161                    0000000180035e8c     biquad_lsh_2.o
 0002:00000e90       $SG8382                    0000000180035e90     biquad_lsh_2.o
 0002:00000e9c       $SG8159                    0000000180035e9c     biquad_lsh_2.o
 0002:00000ea4       $SG8162                    0000000180035ea4     biquad_lsh_2.o
 0002:00000ea8       $SG8158                    0000000180035ea8     biquad_lsh_2.o
 0002:00000eb4       $SG8160                    0000000180035eb4     biquad_lsh_2.o
 0002:00000ebc       $SG8163                    0000000180035ebc     biquad_lsh_2.o
 0002:00000ec4       $SG8168                    0000000180035ec4     biquad_lsh_2.o
 0002:00000ec8       $SG8166                    0000000180035ec8     biquad_lsh_2.o
 0002:00000ed4       $SG8167                    0000000180035ed4     biquad_lsh_2.o
 0002:00000edc       $SG8169                    0000000180035edc     biquad_lsh_2.o
 0002:00000ee8       $SG8379                    0000000180035ee8     biquad_lsh_3.o
 0002:00000efc       $SG8380                    0000000180035efc     biquad_lsh_3.o
 0002:00000f00       $SG8381                    0000000180035f00     biquad_lsh_3.o
 0002:00000f14       $SG8161                    0000000180035f14     biquad_lsh_3.o
 0002:00000f18       $SG8382                    0000000180035f18     biquad_lsh_3.o
 0002:00000f24       $SG8159                    0000000180035f24     biquad_lsh_3.o
 0002:00000f2c       $SG8162                    0000000180035f2c     biquad_lsh_3.o
 0002:00000f30       $SG8158                    0000000180035f30     biquad_lsh_3.o
 0002:00000f3c       $SG8160                    0000000180035f3c     biquad_lsh_3.o
 0002:00000f44       $SG8163                    0000000180035f44     biquad_lsh_3.o
 0002:00000f4c       $SG8168                    0000000180035f4c     biquad_lsh_3.o
 0002:00000f50       $SG8166                    0000000180035f50     biquad_lsh_3.o
 0002:00000f5c       $SG8167                    0000000180035f5c     biquad_lsh_3.o
 0002:00000f64       $SG8169                    0000000180035f64     biquad_lsh_3.o
 0002:00000f70       $SG8379                    0000000180035f70     biquad_lsh_4.o
 0002:00000f84       $SG8380                    0000000180035f84     biquad_lsh_4.o
 0002:00000f88       $SG8381                    0000000180035f88     biquad_lsh_4.o
 0002:00000f9c       $SG8161                    0000000180035f9c     biquad_lsh_4.o
 0002:00000fa0       $SG8382                    0000000180035fa0     biquad_lsh_4.o
 0002:00000fac       $SG8159                    0000000180035fac     biquad_lsh_4.o
 0002:00000fb4       $SG8162                    0000000180035fb4     biquad_lsh_4.o
 0002:00000fb8       $SG8158                    0000000180035fb8     biquad_lsh_4.o
 0002:00000fc4       $SG8160                    0000000180035fc4     biquad_lsh_4.o
 0002:00000fcc       $SG8163                    0000000180035fcc     biquad_lsh_4.o
 0002:00000fd4       $SG8168                    0000000180035fd4     biquad_lsh_4.o
 0002:00000fd8       $SG8166                    0000000180035fd8     biquad_lsh_4.o
 0002:00000fe4       $SG8167                    0000000180035fe4     biquad_lsh_4.o
 0002:00000fec       $SG8169                    0000000180035fec     biquad_lsh_4.o
 0002:00000ff8       $SG8367                    0000000180035ff8     biquad_hsh_1.o
 0002:0000100c       $SG8368                    000000018003600c     biquad_hsh_1.o
 0002:00001010       $SG8369                    0000000180036010     biquad_hsh_1.o
 0002:00001024       $SG8161                    0000000180036024     biquad_hsh_1.o
 0002:00001028       $SG8370                    0000000180036028     biquad_hsh_1.o
 0002:00001034       $SG8159                    0000000180036034     biquad_hsh_1.o
 0002:0000103c       $SG8162                    000000018003603c     biquad_hsh_1.o
 0002:00001040       $SG8158                    0000000180036040     biquad_hsh_1.o
 0002:0000104c       $SG8160                    000000018003604c     biquad_hsh_1.o
 0002:00001054       $SG8163                    0000000180036054     biquad_hsh_1.o
 0002:0000105c       $SG8168                    000000018003605c     biquad_hsh_1.o
 0002:00001060       $SG8166                    0000000180036060     biquad_hsh_1.o
 0002:0000106c       $SG8167                    000000018003606c     biquad_hsh_1.o
 0002:00001074       $SG8169                    0000000180036074     biquad_hsh_1.o
 0002:00001080       $SG8379                    0000000180036080     biquad_hsh_2.o
 0002:00001094       $SG8380                    0000000180036094     biquad_hsh_2.o
 0002:00001098       $SG8381                    0000000180036098     biquad_hsh_2.o
 0002:000010ac       $SG8161                    00000001800360ac     biquad_hsh_2.o
 0002:000010b0       $SG8382                    00000001800360b0     biquad_hsh_2.o
 0002:000010bc       $SG8159                    00000001800360bc     biquad_hsh_2.o
 0002:000010c4       $SG8162                    00000001800360c4     biquad_hsh_2.o
 0002:000010c8       $SG8158                    00000001800360c8     biquad_hsh_2.o
 0002:000010d4       $SG8160                    00000001800360d4     biquad_hsh_2.o
 0002:000010dc       $SG8163                    00000001800360dc     biquad_hsh_2.o
 0002:000010e4       $SG8168                    00000001800360e4     biquad_hsh_2.o
 0002:000010e8       $SG8166                    00000001800360e8     biquad_hsh_2.o
 0002:000010f4       $SG8167                    00000001800360f4     biquad_hsh_2.o
 0002:000010fc       $SG8169                    00000001800360fc     biquad_hsh_2.o
 0002:00001108       $SG8379                    0000000180036108     biquad_hsh_3.o
 0002:0000111c       $SG8380                    000000018003611c     biquad_hsh_3.o
 0002:00001120       $SG8381                    0000000180036120     biquad_hsh_3.o
 0002:00001134       $SG8161                    0000000180036134     biquad_hsh_3.o
 0002:00001138       $SG8382                    0000000180036138     biquad_hsh_3.o
 0002:00001144       $SG8159                    0000000180036144     biquad_hsh_3.o
 0002:0000114c       $SG8162                    000000018003614c     biquad_hsh_3.o
 0002:00001150       $SG8158                    0000000180036150     biquad_hsh_3.o
 0002:0000115c       $SG8160                    000000018003615c     biquad_hsh_3.o
 0002:00001164       $SG8163                    0000000180036164     biquad_hsh_3.o
 0002:0000116c       $SG8168                    000000018003616c     biquad_hsh_3.o
 0002:00001170       $SG8166                    0000000180036170     biquad_hsh_3.o
 0002:0000117c       $SG8167                    000000018003617c     biquad_hsh_3.o
 0002:00001184       $SG8169                    0000000180036184     biquad_hsh_3.o
 0002:00001190       $SG8379                    0000000180036190     biquad_hsh_4.o
 0002:000011a4       $SG8380                    00000001800361a4     biquad_hsh_4.o
 0002:000011a8       $SG8381                    00000001800361a8     biquad_hsh_4.o
 0002:000011bc       $SG8161                    00000001800361bc     biquad_hsh_4.o
 0002:000011c0       $SG8382                    00000001800361c0     biquad_hsh_4.o
 0002:000011cc       $SG8159                    00000001800361cc     biquad_hsh_4.o
 0002:000011d4       $SG8162                    00000001800361d4     biquad_hsh_4.o
 0002:000011d8       $SG8158                    00000001800361d8     biquad_hsh_4.o
 0002:000011e4       $SG8160                    00000001800361e4     biquad_hsh_4.o
 0002:000011ec       $SG8163                    00000001800361ec     biquad_hsh_4.o
 0002:000011f4       $SG8168                    00000001800361f4     biquad_hsh_4.o
 0002:000011f8       $SG8166                    00000001800361f8     biquad_hsh_4.o
 0002:00001204       $SG8167                    0000000180036204     biquad_hsh_4.o
 0002:0000120c       $SG8169                    000000018003620c     biquad_hsh_4.o
 0002:00001218       $SG5809                    0000000180036218     dly_1.o
 0002:00001224       $SG5810                    0000000180036224     dly_1.o
 0002:0000122c       $SG6031                    000000018003622c     dly_1.o
 0002:00001230       $SG5811                    0000000180036230     dly_1.o
 0002:0000123c       $SG6033                    000000018003623c     dly_1.o
 0002:00001248       $SG5812                    0000000180036248     dly_1.o
 0002:00001258       $SG5815                    0000000180036258     dly_1.o
 0002:00001264       $SG5816                    0000000180036264     dly_1.o
 0002:00001270       $SG5817                    0000000180036270     dly_1.o
 0002:00001280       $SG5818                    0000000180036280     dly_1.o
 0002:00001290       $SG6030                    0000000180036290     dly_1.o
 0002:000012a0       $SG6032                    00000001800362a0     dly_1.o
 0002:000012b8       $SG5809                    00000001800362b8     dly_2.o
 0002:000012c4       $SG5810                    00000001800362c4     dly_2.o
 0002:000012cc       $SG6048                    00000001800362cc     dly_2.o
 0002:000012d0       $SG5811                    00000001800362d0     dly_2.o
 0002:000012dc       $SG5812                    00000001800362dc     dly_2.o
 0002:000012e8       $SG5813                    00000001800362e8     dly_2.o
 0002:000012f8       $SG5814                    00000001800362f8     dly_2.o
 0002:00001308       $SG5815                    0000000180036308     dly_2.o
 0002:00001318       $SG5816                    0000000180036318     dly_2.o
 0002:00001328       $SG5819                    0000000180036328     dly_2.o
 0002:00001334       $SG5820                    0000000180036334     dly_2.o
 0002:00001340       $SG5821                    0000000180036340     dly_2.o
 0002:00001350       $SG5822                    0000000180036350     dly_2.o
 0002:00001360       $SG6047                    0000000180036360     dly_2.o
 0002:00001370       $SG6049                    0000000180036370     dly_2.o
 0002:00001378       $SG6050                    0000000180036378     dly_2.o
 0002:00001380       $SG5899                    0000000180036380     dly_flt_2.o
 0002:0000138c       $SG5900                    000000018003638c     dly_flt_2.o
 0002:00001394       $SG5906                    0000000180036394     dly_flt_2.o
 0002:0000139c       $SG6145                    000000018003639c     dly_flt_2.o
 0002:000013a0       $SG5901                    00000001800363a0     dly_flt_2.o
 0002:000013b0       $SG5902                    00000001800363b0     dly_flt_2.o
 0002:000013c0       $SG5903                    00000001800363c0     dly_flt_2.o
 0002:000013d0       $SG5904                    00000001800363d0     dly_flt_2.o
 0002:000013e0       $SG5905                    00000001800363e0     dly_flt_2.o
 0002:000013ec       $SG5909                    00000001800363ec     dly_flt_2.o
 0002:000013f8       $SG5910                    00000001800363f8     dly_flt_2.o
 0002:00001408       $SG5911                    0000000180036408     dly_flt_2.o
 0002:00001418       $SG5912                    0000000180036418     dly_flt_2.o
 0002:00001428       $SG6144                    0000000180036428     dly_flt_2.o
 0002:00001438       $SG6146                    0000000180036438     dly_flt_2.o
 0002:00001448       $SG6147                    0000000180036448     dly_flt_2.o
 0002:00001458       $SG5839                    0000000180036458     bitflipper.o
 0002:00001464       $SG5840                    0000000180036464     bitflipper.o
 0002:0000146c       $SG5841                    000000018003646c     bitflipper.o
 0002:00001474       $SG5842                    0000000180036474     bitflipper.o
 0002:00001478       $SG5843                    0000000180036478     bitflipper.o
 0002:0000147c       $SG5849                    000000018003647c     bitflipper.o
 0002:00001480       $SG5846                    0000000180036480     bitflipper.o
 0002:0000148c       $SG5847                    000000018003648c     bitflipper.o
 0002:00001494       $SG5848                    0000000180036494     bitflipper.o
 0002:0000149c       $SG6065                    000000018003649c     bitflipper.o
 0002:000014a0       $SG6064                    00000001800364a0     bitflipper.o
 0002:000014b0       $SG6066                    00000001800364b0     bitflipper.o
 0002:000014c0       $SG6067                    00000001800364c0     bitflipper.o
 0002:00001500       ?tokenTable@@3QBUStringLiteral@@B 0000000180036500     libvcruntime:undname.obj
 0002:00001600       ?nameTable@@3QBUStringLiteral@@B 0000000180036600     libvcruntime:undname.obj
 0002:00001b30       ?rttiTable@@3QBUStringLiteral@@B 0000000180036b30     libvcruntime:undname.obj
 0002:00001b80       ?IndirectionName@@3QBUStringLiteral@@B 0000000180036b80     libvcruntime:undname.obj
 0002:00001be0       ?PrefixName@@3QBUStringLiteral@@B 0000000180036be0     libvcruntime:undname.obj
 0002:000022b8       ?module_names@?A0x5a6460af@@3QBQEB_WB 00000001800372b8     libvcruntime:winapi_downlevel.obj
 0002:00002378       ?candidate_modules@?1??try_get_FlsAlloc@@YAP6AKP6AXPEAX@Z@ZXZ@4QBW4module_id@?A0x5a6460af@@B 0000000180037378     libvcruntime:winapi_downlevel.obj
 0002:00002390       ?candidate_modules@?1??try_get_FlsFree@@YAP6AHK@ZXZ@4QBW4module_id@?A0x5a6460af@@B 0000000180037390     libvcruntime:winapi_downlevel.obj
 0002:000023a0       ?candidate_modules@?1??try_get_FlsGetValue@@YAP6APEAXK@ZXZ@4QBW4module_id@?A0x5a6460af@@B 00000001800373a0     libvcruntime:winapi_downlevel.obj
 0002:000023b8       ?candidate_modules@?1??try_get_FlsSetValue@@YAP6AHKPEAX@ZXZ@4QBW4module_id@?A0x5a6460af@@B 00000001800373b8     libvcruntime:winapi_downlevel.obj
 0002:000023d0       ?candidate_modules@?1??try_get_InitializeCriticalSectionEx@@YAP6AHPEAU_RTL_CRITICAL_SECTION@@KK@ZXZ@4QBW4module_id@?A0x5a6460af@@B 00000001800373d0     libvcruntime:winapi_downlevel.obj
 0002:00002400       L_signbit                  0000000180037400     libucrt:sinf.obj
 0002:00002410       L_sign_mask                0000000180037410     libucrt:sinf.obj
 0002:00002420       L_one                      0000000180037420     libucrt:sinf.obj
 0002:00002430       L_int_three                0000000180037430     libucrt:sinf.obj
 0002:00002440       L_one_half                 0000000180037440     libucrt:sinf.obj
 0002:00002450       L_twobypi                  0000000180037450     libucrt:sinf.obj
 0002:00002460       L_piby2_1                  0000000180037460     libucrt:sinf.obj
 0002:00002470       L_one_sixth                0000000180037470     libucrt:sinf.obj
 0002:00002480       L_piby2_1tail              0000000180037480     libucrt:sinf.obj
 0002:00002490       L_piby2_2                  0000000180037490     libucrt:sinf.obj
 0002:000024a0       L_piby2_2tail              00000001800374a0     libucrt:sinf.obj
 0002:000024b0       L_inf_mask_32              00000001800374b0     libucrt:sinf.obj
 0002:000024c0       L_int_two                  00000001800374c0     libucrt:sinf.obj
 0002:000024d0       L_piby2_lead               00000001800374d0     libucrt:sinf.obj
 0002:000024e0       L_piby4                    00000001800374e0     libucrt:sinf.obj
 0002:000024f0       L_mask_3f2                 00000001800374f0     libucrt:sinf.obj
 0002:00002500       L_mask_3f8                 0000000180037500     libucrt:sinf.obj
 0002:00002510       L_large_x_fma3             0000000180037510     libucrt:sinf.obj
 0002:00002518       L_large_x_sse2             0000000180037518     libucrt:sinf.obj
 0002:00002520       L_near_one                 0000000180037520     libucrt:sinf.obj
 0002:00002528       L_two_to_32                0000000180037528     libucrt:sinf.obj
 0002:00002530       __flag_x_one_y_snan        0000000180037530     libucrt:powf.obj
 0002:00002534       __flag_x_zero_z_inf        0000000180037534     libucrt:powf.obj
 0002:00002538       __flag_x_nan               0000000180037538     libucrt:powf.obj
 0002:0000253c       __flag_y_nan               000000018003753c     libucrt:powf.obj
 0002:00002540       __flag_x_nan_y_nan         0000000180037540     libucrt:powf.obj
 0002:00002544       __flag_x_neg_y_notint      0000000180037544     libucrt:powf.obj
 0002:00002548       __flag_z_zero              0000000180037548     libucrt:powf.obj
 0002:0000254c       __flag_z_denormal          000000018003754c     libucrt:powf.obj
 0002:00002550       __flag_z_inf               0000000180037550     libucrt:powf.obj
 0002:00002554       L__1_by_3                  0000000180037554     libucrt:powf.obj
 0002:0000255c       L__log2                    000000018003755c     libucrt:powf.obj
 0002:00002564       L__max_exp_arg             0000000180037564     libucrt:powf.obj
 0002:0000256c       L__min_exp_arg             000000018003756c     libucrt:powf.obj
 0002:00002574       L__real_log2_by_64         0000000180037574     libucrt:powf.obj
 0002:0000257c       L__1_by_6                  000000018003757c     libucrt:powf.obj
 0002:00002584       L__real_threshold          0000000180037584     libucrt:powf.obj
 0002:0000258c       L__real_one                000000018003758c     libucrt:powf.obj
 0002:00002594       L__real_two                0000000180037594     libucrt:powf.obj
 0002:0000259c       L__neg_zero                000000018003759c     libucrt:powf.obj
 0002:000025b0       L__real_ca42               00000001800375b0     libucrt:powf.obj
 0002:000025b8       L__real_ca4                00000001800375b8     libucrt:powf.obj
 0002:000025c0       L__real_ca31               00000001800375c0     libucrt:powf.obj
 0002:000025c8       L__real_ca3                00000001800375c8     libucrt:powf.obj
 0002:000025d0       L__clear_sign              00000001800375d0     libucrt:powf.obj
 0002:000025e0       L__real_64_by_log2         00000001800375e0     libucrt:powf.obj
 0002:000025f0       L__1_by_2                  00000001800375f0     libucrt:powf.obj
 0002:00002600       L__1023                    0000000180037600     libucrt:powf.obj
 0002:00002610       L__xexp_bits_xmantissa_bits 0000000180037610     libucrt:powf.obj
 0002:00002e30       ?two_to_jby32_lead_table@?1??splitexpf@@9@9 0000000180037e30     libucrt:tanhf.obj
 0002:00002eb0       ?two_to_jby32_trail_table@?1??splitexpf@@9@9 0000000180037eb0     libucrt:tanhf.obj
 0002:00002f70       __flag_x_nan               0000000180037f70     libucrt:exp.obj
 0002:00002f74       __flag_y_zero              0000000180037f74     libucrt:exp.obj
 0002:00002f78       __flag_y_inf               0000000180037f78     libucrt:exp.obj
 0002:00002f80       L__real_1_by_720           0000000180037f80     libucrt:exp.obj
 0002:00002f90       L__real_1_by_120           0000000180037f90     libucrt:exp.obj
 0002:00002fa0       L__real_1_by_6             0000000180037fa0     libucrt:exp.obj
 0002:00002fb0       L__real_1_by_2             0000000180037fb0     libucrt:exp.obj
 0002:00002fc0       L__real_1_by_24            0000000180037fc0     libucrt:exp.obj
 0002:00002fd0       L__log2_by_64_mtail_mhead  0000000180037fd0     libucrt:exp.obj
 0002:00002fe0       L__ln_of_smallest_normal   0000000180037fe0     libucrt:exp.obj
 0002:00002fe8       L__zero                    0000000180037fe8     libucrt:exp.obj
 0002:00002ff0       L__max_exp_arg             0000000180037ff0     libucrt:exp.obj
 0002:00002ff8       L__denormal_tiny_threshold 0000000180037ff8     libucrt:exp.obj
 0002:00003000       L__min_exp_arg             0000000180038000     libucrt:exp.obj
 0002:00003008       L__real_64_by_log2         0000000180038008     libucrt:exp.obj
 0002:00003010       L__positive_infinity       0000000180038010     libucrt:exp.obj
 0002:00003018       L__negative_infinity       0000000180038018     libucrt:exp.obj
 0002:00003020       L__real_qnanbit            0000000180038020     libucrt:exp.obj
 0002:00003028       L__real_x_near0_threshold  0000000180038028     libucrt:exp.obj
 0002:00003030       L__log2_by_64_mhead        0000000180038030     libucrt:exp.obj
 0002:00003038       L__log2_by_64_mtail        0000000180038038     libucrt:exp.obj
 0002:00003040       L__real_smallest_denormal  0000000180038040     libucrt:exp.obj
 0002:00003048       L__real_one                0000000180038048     libucrt:exp.obj
 0002:00003050       L__2_to_neg_26             0000000180038050     libucrt:exp.obj
 0002:00003058       L__2_to_32                 0000000180038058     libucrt:exp.obj
 0002:00003060       L__min_normal              0000000180038060     libucrt:exp.obj
 0002:00003068       L__2_to_neg_63             0000000180038068     libucrt:exp.obj
 0002:00003070       L_real_piby2_1             0000000180038070     libucrt:sin.obj
 0002:00003080       L_real_piby2_1tail         0000000180038080     libucrt:sin.obj
 0002:00003090       L_real_piby2_2             0000000180038090     libucrt:sin.obj
 0002:000030a0       L_real_piby2_2tail         00000001800380a0     libucrt:sin.obj
 0002:000030b0       L_one                      00000001800380b0     libucrt:sin.obj
 0002:000030c0       L_signbit                  00000001800380c0     libucrt:sin.obj
 0002:000030d0       L_int_one                  00000001800380d0     libucrt:sin.obj
 0002:000030e0       L_int_two                  00000001800380e0     libucrt:sin.obj
 0002:000030f0       L_int_three                00000001800380f0     libucrt:sin.obj
 0002:00003100       L_2_by_pi                  0000000180038100     libucrt:sin.obj
 0002:00003108       L_one_half                 0000000180038108     libucrt:sin.obj
 0002:00003110       L_one_sixth                0000000180038110     libucrt:sin.obj
 0002:00003118       L_two_to_neg_27            0000000180038118     libucrt:sin.obj
 0002:00003120       L_two_to_neg_13            0000000180038120     libucrt:sin.obj
 0002:00003128       L_piby4                    0000000180038128     libucrt:sin.obj
 0002:00003130       L_small_arg_cw             0000000180038130     libucrt:sin.obj
 0002:00003138       L_small_arg_bdl            0000000180038138     libucrt:sin.obj
 0002:00003140       L__inf_mask_64             0000000180038140     libucrt:sin.obj
 0002:00003148       L_near_one                 0000000180038148     libucrt:sin.obj
 0002:00003150       L_real_one                 0000000180038150     libucrt:cosf.obj
 0002:00003160       L_one_half                 0000000180038160     libucrt:cosf.obj
 0002:00003170       L_2bypi                    0000000180038170     libucrt:cosf.obj
 0002:00003180       L_one_sixth                0000000180038180     libucrt:cosf.obj
 0002:00003190       L_piby2                    0000000180038190     libucrt:cosf.obj
 0002:000031a0       L_piby2_1                  00000001800381a0     libucrt:cosf.obj
 0002:000031b0       L_piby2_1tail              00000001800381b0     libucrt:cosf.obj
 0002:000031c0       L_piby2_2                  00000001800381c0     libucrt:cosf.obj
 0002:000031d0       L_piby2_2tail              00000001800381d0     libucrt:cosf.obj
 0002:000031e0       L_large_x_sse2             00000001800381e0     libucrt:cosf.obj
 0002:000031f0       L_large_x_fma3             00000001800381f0     libucrt:cosf.obj
 0002:00003200       L_sign_mask                0000000180038200     libucrt:cosf.obj
 0002:00003210       L__int_three               0000000180038210     libucrt:cosf.obj
 0002:00003220       L__min_norm_double         0000000180038220     libucrt:cosf.obj
 0002:00003230       L_two_to_neg_7             0000000180038230     libucrt:cosf.obj
 0002:00003240       L_two_to_neg_13            0000000180038240     libucrt:cosf.obj
 0002:00003250       L_two_to_32_float          0000000180038250     libucrt:cosf.obj
 0002:00003258       L_one_float                0000000180038258     libucrt:cosf.obj
 0002:00003260       L_inf_mask_32              0000000180038260     libucrt:cosf.obj
 0002:00003270       ?two_to_jby32_lead_table@?1??splitexp@@9@9 0000000180038270     libucrt:sinh.obj
 0002:00003370       ?two_to_jby32_trail_table@?1??splitexp@@9@9 0000000180038370     libucrt:sinh.obj
 0002:00003470       ?sinh_lead@?1??sinh@@9@9   0000000180038470     libucrt:sinh.obj
 0002:000035a0       ?sinh_tail@?1??sinh@@9@9   00000001800385a0     libucrt:sinh.obj
 0002:000036d0       ?cosh_lead@?1??sinh@@9@9   00000001800386d0     libucrt:sinh.obj
 0002:00003800       ?cosh_tail@?1??sinh@@9@9   0000000180038800     libucrt:sinh.obj
 0002:000039f0       __flag_x_one_y_snan        00000001800389f0     libucrt:pow.obj
 0002:000039f4       __flag_x_zero_z_inf        00000001800389f4     libucrt:pow.obj
 0002:000039f8       __flag_x_nan               00000001800389f8     libucrt:pow.obj
 0002:000039fc       __flag_y_nan               00000001800389fc     libucrt:pow.obj
 0002:00003a00       __flag_x_nan_y_nan         0000000180038a00     libucrt:pow.obj
 0002:00003a04       __flag_x_neg_y_notint      0000000180038a04     libucrt:pow.obj
 0002:00003a08       __flag_z_zero              0000000180038a08     libucrt:pow.obj
 0002:00003a0c       __flag_z_denormal          0000000180038a0c     libucrt:pow.obj
 0002:00003a10       __flag_z_inf               0000000180038a10     libucrt:pow.obj
 0002:00003a20       __ay_max_bound             0000000180038a20     libucrt:pow.obj
 0002:00003a28       __ay_min_bound             0000000180038a28     libucrt:pow.obj
 0002:00003a30       __sign_mask                0000000180038a30     libucrt:pow.obj
 0002:00003a38       __sign_and_exp_mask        0000000180038a38     libucrt:pow.obj
 0002:00003a40       __exp_mask                 0000000180038a40     libucrt:pow.obj
 0002:00003a48       __neg_inf                  0000000180038a48     libucrt:pow.obj
 0002:00003a50       __pos_inf                  0000000180038a50     libucrt:pow.obj
 0002:00003a58       __pos_one                  0000000180038a58     libucrt:pow.obj
 0002:00003a60       __pos_zero                 0000000180038a60     libucrt:pow.obj
 0002:00003a68       __exp_mant_mask            0000000180038a68     libucrt:pow.obj
 0002:00003a70       __mant_mask                0000000180038a70     libucrt:pow.obj
 0002:00003a78       __ind_pattern              0000000180038a78     libucrt:pow.obj
 0002:00003a80       __neg_qnan                 0000000180038a80     libucrt:pow.obj
 0002:00003a88       __qnan                     0000000180038a88     libucrt:pow.obj
 0002:00003a90       __qnan_set                 0000000180038a90     libucrt:pow.obj
 0002:00003a98       __neg_one                  0000000180038a98     libucrt:pow.obj
 0002:00003aa0       __neg_zero                 0000000180038aa0     libucrt:pow.obj
 0002:00003aa8       __exp_shift                0000000180038aa8     libucrt:pow.obj
 0002:00003ab0       __exp_bias                 0000000180038ab0     libucrt:pow.obj
 0002:00003ab8       __exp_bias_m1              0000000180038ab8     libucrt:pow.obj
 0002:00003ac0       __yexp_53                  0000000180038ac0     libucrt:pow.obj
 0002:00003ac8       __mant_full                0000000180038ac8     libucrt:pow.obj
 0002:00003ad0       __1_before_mant            0000000180038ad0     libucrt:pow.obj
 0002:00003ad8       __mask_mant_all8           0000000180038ad8     libucrt:pow.obj
 0002:00003ae0       __mask_mant9               0000000180038ae0     libucrt:pow.obj
 0002:00003af0       __real_fffffffff8000000    0000000180038af0     libucrt:pow.obj
 0002:00003b00       __mask_8000000000000000    0000000180038b00     libucrt:pow.obj
 0002:00003b10       __real_4090040000000000    0000000180038b10     libucrt:pow.obj
 0002:00003b20       __real_C090C80000000000    0000000180038b20     libucrt:pow.obj
 0002:00003b30       __real_ninf                0000000180038b30     libucrt:pow.obj
 0002:00003b40       __real_inf                 0000000180038b40     libucrt:pow.obj
 0002:00003b50       __real_nan                 0000000180038b50     libucrt:pow.obj
 0002:00003b60       __real_mant                0000000180038b60     libucrt:pow.obj
 0002:00003b70       __mask_1023                0000000180038b70     libucrt:pow.obj
 0002:00003b80       __mask_001                 0000000180038b80     libucrt:pow.obj
 0002:00003b90       __real_log2_lead           0000000180038b90     libucrt:pow.obj
 0002:00003ba0       __real_log2_tail           0000000180038ba0     libucrt:pow.obj
 0002:00003bb0       __real_two                 0000000180038bb0     libucrt:pow.obj
 0002:00003bc0       __real_one                 0000000180038bc0     libucrt:pow.obj
 0002:00003bd0       __real_half                0000000180038bd0     libucrt:pow.obj
 0002:00003be0       __mask_100                 0000000180038be0     libucrt:pow.obj
 0002:00003bf0       __real_1_over_2            0000000180038bf0     libucrt:pow.obj
 0002:00003c00       __real_1_over_3            0000000180038c00     libucrt:pow.obj
 0002:00003c10       __real_1_over_4            0000000180038c10     libucrt:pow.obj
 0002:00003c20       __real_1_over_5            0000000180038c20     libucrt:pow.obj
 0002:00003c30       __real_1_over_6            0000000180038c30     libucrt:pow.obj
 0002:00003c40       __real_1_over_7            0000000180038c40     libucrt:pow.obj
 0002:00003c50       __mask_1023_f              0000000180038c50     libucrt:pow.obj
 0002:00003c60       __mask_2045                0000000180038c60     libucrt:pow.obj
 0002:00003c70       __real_threshold           0000000180038c70     libucrt:pow.obj
 0002:00003c80       __real_notsign             0000000180038c80     libucrt:pow.obj
 0002:00003c90       __log_F_inv_head           0000000180038c90     libucrt:pow.obj
 0002:000044a0       __log_F_inv_tail           00000001800394a0     libucrt:pow.obj
 0002:00004cb0       __denormal_threshold       0000000180039cb0     libucrt:pow.obj
 0002:00004cc0       __enable_almost_inf        0000000180039cc0     libucrt:pow.obj
 0002:00004cd0       __real_zero                0000000180039cd0     libucrt:pow.obj
 0002:00004ce0       __real_smallest_denormal   0000000180039ce0     libucrt:pow.obj
 0002:00004cf0       __denormal_tiny_threshold  0000000180039cf0     libucrt:pow.obj
 0002:00004d00       __real_p65536              0000000180039d00     libucrt:pow.obj
 0002:00004d10       __real_m68800              0000000180039d10     libucrt:pow.obj
 0002:00004d20       __real_64_by_log2          0000000180039d20     libucrt:pow.obj
 0002:00004d30       __real_log2_by_64_head     0000000180039d30     libucrt:pow.obj
 0002:00004d40       __real_log2_by_64_tail     0000000180039d40     libucrt:pow.obj
 0002:00004d50       __real_1_by_720            0000000180039d50     libucrt:pow.obj
 0002:00004d60       __real_1_by_120            0000000180039d60     libucrt:pow.obj
 0002:00004d70       __real_1_by_24             0000000180039d70     libucrt:pow.obj
 0002:00004d80       __real_1_by_6              0000000180039d80     libucrt:pow.obj
 0002:00004d90       __real_1_by_2              0000000180039d90     libucrt:pow.obj
 0002:00004db0       L_signbit                  0000000180039db0     libucrt:tan.obj
 0002:00004dc0       L_sign_mask                0000000180039dc0     libucrt:tan.obj
 0002:00004dd0       L_int_one                  0000000180039dd0     libucrt:tan.obj
 0002:00004de0       L_twobypi                  0000000180039de0     libucrt:tan.obj
 0002:00004df0       L_point_333                0000000180039df0     libucrt:tan.obj
 0002:00004e00       L_tan_p0                   0000000180039e00     libucrt:tan.obj
 0002:00004e10       L_tan_p2                   0000000180039e10     libucrt:tan.obj
 0002:00004e20       L_tan_p4                   0000000180039e20     libucrt:tan.obj
 0002:00004e30       L_tan_q0                   0000000180039e30     libucrt:tan.obj
 0002:00004e40       L_tan_q2                   0000000180039e40     libucrt:tan.obj
 0002:00004e50       L_tan_q4                   0000000180039e50     libucrt:tan.obj
 0002:00004e60       L_tan_q6                   0000000180039e60     libucrt:tan.obj
 0002:00004e70       L_half_mask                0000000180039e70     libucrt:tan.obj
 0002:00004e80       L_piby4_lead               0000000180039e80     libucrt:tan.obj
 0002:00004e90       L_piby4_tail               0000000180039e90     libucrt:tan.obj
 0002:00004ea0       L_piby2_1                  0000000180039ea0     libucrt:tan.obj
 0002:00004ea8       L_piby2_1tail              0000000180039ea8     libucrt:tan.obj
 0002:00004eb0       L_piby2_2                  0000000180039eb0     libucrt:tan.obj
 0002:00004eb8       L_piby2_2tail              0000000180039eb8     libucrt:tan.obj
 0002:00004ec0       L_piby2_3                  0000000180039ec0     libucrt:tan.obj
 0002:00004ec8       L_piby2_3tail              0000000180039ec8     libucrt:tan.obj
 0002:00004ed0       L_two_to_neg_27            0000000180039ed0     libucrt:tan.obj
 0002:00004ed8       L_two_to_neg_13            0000000180039ed8     libucrt:tan.obj
 0002:00004ee0       L_inf_mask_64              0000000180039ee0     libucrt:tan.obj
 0002:00004ee8       L_point_five               0000000180039ee8     libucrt:tan.obj
 0002:00004ef0       L_point_68                 0000000180039ef0     libucrt:tan.obj
 0002:00004ef8       L_n_point_68               0000000180039ef8     libucrt:tan.obj
 0002:00004f00       L_zero                     0000000180039f00     libucrt:tan.obj
 0002:00004f08       L_one                      0000000180039f08     libucrt:tan.obj
 0002:00004f10       L_n_one                    0000000180039f10     libucrt:tan.obj
 0002:00004f18       L_two                      0000000180039f18     libucrt:tan.obj
 0002:00004f20       L_near_one                 0000000180039f20     libucrt:tan.obj
 0002:00004f28       L_moderate_arg_cw          0000000180039f28     libucrt:tan.obj
 0002:00004f30       L_moderate_arg_bdl         0000000180039f30     libucrt:tan.obj
 0002:00005040       __acrt_initializers        000000018003a040     libucrt:initialization.obj
 0002:00005230       L__piby2                   000000018003a230     libucrt:remainder_piby2f_forc.obj
 0002:00005240       L__2_by_pi_bits            000000018003a240     libucrt:remainder_piby2f_forc.obj
 0002:000061f0       L__piby2_part3_piby2_lead  000000018003b1f0     libucrt:remainder_piby2_forasm.obj
 0002:00006200       L__piby2_part1             000000018003b200     libucrt:remainder_piby2_forasm.obj
 0002:00006210       L__piby2_part2             000000018003b210     libucrt:remainder_piby2_forasm.obj
 0002:00006220       L_piby2_1                  000000018003b220     libucrt:remainder_piby2_forasm.obj
 0002:00006230       L_piby2_2                  000000018003b230     libucrt:remainder_piby2_forasm.obj
 0002:00006240       L_piby2_3                  000000018003b240     libucrt:remainder_piby2_forasm.obj
 0002:00006250       L_piby2_1tail              000000018003b250     libucrt:remainder_piby2_forasm.obj
 0002:00006260       L_piby2_2tail              000000018003b260     libucrt:remainder_piby2_forasm.obj
 0002:00006270       L_piby2_3tail              000000018003b270     libucrt:remainder_piby2_forasm.obj
 0002:00006280       L_twobypi                  000000018003b280     libucrt:remainder_piby2_forasm.obj
 0002:00006290       L_point_five               000000018003b290     libucrt:remainder_piby2_forasm.obj
 0002:000062a0       L_int_three                000000018003b2a0     libucrt:remainder_piby2_forasm.obj
 0002:000062b0       L_inf_mask_64              000000018003b2b0     libucrt:remainder_piby2_forasm.obj
 0002:000062c0       L_signbit                  000000018003b2c0     libucrt:remainder_piby2_forasm.obj
 0002:000062d0       L_int_1                    000000018003b2d0     libucrt:remainder_piby2_forasm.obj
 0002:000062e0       L_int_15                   000000018003b2e0     libucrt:remainder_piby2_forasm.obj
 0002:000062e8       L_int_48                   000000018003b2e8     libucrt:remainder_piby2_forasm.obj
 0002:000062f0       L_3pio4                    000000018003b2f0     libucrt:remainder_piby2_forasm.obj
 0002:000062f8       L_5pio4                    000000018003b2f8     libucrt:remainder_piby2_forasm.obj
 0002:00006300       L_7pio4                    000000018003b300     libucrt:remainder_piby2_forasm.obj
 0002:00006308       L_9pio4                    000000018003b308     libucrt:remainder_piby2_forasm.obj
 0002:00006310       L__2_by_pi_bits            000000018003b310     libucrt:remainder_piby2_forasm.obj
 0002:000063b0       L_piby2_lead               000000018003b3b0     libucrt:remainder_piby2_forfma3.obj
 0002:000063c0       L_fff800                   000000018003b3c0     libucrt:remainder_piby2_forfma3.obj
 0002:000063d0       L_piby2_part1              000000018003b3d0     libucrt:remainder_piby2_forfma3.obj
 0002:000063e0       L_piby2_part2              000000018003b3e0     libucrt:remainder_piby2_forfma3.obj
 0002:000063f0       L_piby2_part3              000000018003b3f0     libucrt:remainder_piby2_forfma3.obj
 0002:00006400       L_piby2_1                  000000018003b400     libucrt:remainder_piby2_forfma3.obj
 0002:00006410       L_piby2_2                  000000018003b410     libucrt:remainder_piby2_forfma3.obj
 0002:00006420       L_piby2_3                  000000018003b420     libucrt:remainder_piby2_forfma3.obj
 0002:00006430       L_piby2_1tail              000000018003b430     libucrt:remainder_piby2_forfma3.obj
 0002:00006440       L_piby2_2tail              000000018003b440     libucrt:remainder_piby2_forfma3.obj
 0002:00006450       L_piby2_3tail              000000018003b450     libucrt:remainder_piby2_forfma3.obj
 0002:00006460       L_sign_mask                000000018003b460     libucrt:remainder_piby2_forfma3.obj
 0002:00006470       L_twobypi                  000000018003b470     libucrt:remainder_piby2_forfma3.obj
 0002:00006480       L_point_five               000000018003b480     libucrt:remainder_piby2_forfma3.obj
 0002:00006490       L_int_three                000000018003b490     libucrt:remainder_piby2_forfma3.obj
 0002:000064a0       L_inf_mask_64              000000018003b4a0     libucrt:remainder_piby2_forfma3.obj
 0002:000064b0       L_signbit                  000000018003b4b0     libucrt:remainder_piby2_forfma3.obj
 0002:000064c0       L_r                        000000018003b4c0     libucrt:remainder_piby2_forfma3.obj
 0002:000064d0       L_xc1                      000000018003b4d0     libucrt:remainder_piby2_forfma3.obj
 0002:000064e0       L_xc2                      000000018003b4e0     libucrt:remainder_piby2_forfma3.obj
 0002:000064f0       L_xc3                      000000018003b4f0     libucrt:remainder_piby2_forfma3.obj
 0002:00006500       L_sigma                    000000018003b500     libucrt:remainder_piby2_forfma3.obj
 0002:00006510       L__piby2                   000000018003b510     libucrt:remainder_piby2f_forasm.obj
 0002:00007540       ?errtable@@3QBUerrentry@?A0x31fdb9ec@@B 000000018003c540     libucrt:errno.obj
 0002:000076a0       ?_mb_locale_names@@3QBQEB_WB 000000018003c6a0     libucrt:mbctype.obj
 0002:00007700       ?module_names@?A0x391cf84c@@3QBQEB_WB 000000018003c700     libucrt:winapi_thunks.obj
 0002:00007ca8       ?candidate_modules@?1??try_get_FlsAlloc@@YAP6AKP6AXPEAX@Z@ZXZ@4QBW4module_id@?A0x391cf84c@@B 000000018003cca8     libucrt:winapi_thunks.obj
 0002:00007cc0       ?candidate_modules@?1??try_get_FlsFree@@YAP6AHK@ZXZ@4QBW4module_id@?A0x391cf84c@@B 000000018003ccc0     libucrt:winapi_thunks.obj
 0002:00007cd0       ?candidate_modules@?1??try_get_FlsGetValue@@YAP6APEAXK@ZXZ@4QBW4module_id@?A0x391cf84c@@B 000000018003ccd0     libucrt:winapi_thunks.obj
 0002:00007ce8       ?candidate_modules@?1??try_get_FlsSetValue@@YAP6AHKPEAX@ZXZ@4QBW4module_id@?A0x391cf84c@@B 000000018003cce8     libucrt:winapi_thunks.obj
 0002:00007d00       ?candidate_modules@?1??try_get_InitializeCriticalSectionEx@@YAP6AHPEAU_RTL_CRITICAL_SECTION@@KK@ZXZ@4QBW4module_id@?A0x391cf84c@@B 000000018003cd00     libucrt:winapi_thunks.obj
 0002:00007d28       ?candidate_modules@?1??try_get_LCMapStringEx@@YAP6AHPEB_WK0HPEA_WHPEAU_nlsversioninfo@@PEAX_J@ZXZ@4QBW4module_id@?A0x391cf84c@@B 000000018003cd28     libucrt:winapi_thunks.obj
 0002:00007d40       ?candidate_modules@?1??try_get_LocaleNameToLCID@@YAP6AKPEB_WK@ZXZ@4QBW4module_id@?A0x391cf84c@@B 000000018003cd40     libucrt:winapi_thunks.obj
 0002:00007d5c       ?candidate_modules@?1??try_get_AppPolicyGetProcessTerminationMethod@@YAP6AJPEAXPEAW4AppPolicyProcessTerminationMethod@@@ZXZ@4QBW4module_id@?A0x391cf84c@@B 000000018003cd5c     libucrt:winapi_thunks.obj
 0002:00008a10       __real@433fffffffffffff    000000018003da10     libucrt:fpsr.obj
 0002:00008a18       __real@c33fffffffffffff    000000018003da18     libucrt:fpsr.obj
 0002:00009410       ?LocaleNameToIndexTable@?A0x881e4c05@@3QBULocaleNameIndex@1@B 000000018003e410     libucrt:lcidtoname_downlevel.obj
 0002:0000acb0       ?LcidToLocaleNameTable@?A0x881e4c05@@3QBULcidToLocaleName@1@B 000000018003fcb0     libucrt:lcidtoname_downlevel.obj
 0002:0000bd30       __real_ninf                0000000180040d30     libucrt:log10.obj
 0002:0000bd40       __real_inf                 0000000180040d40     libucrt:log10.obj
 0002:0000bd50       __real_neg_qnan            0000000180040d50     libucrt:log10.obj
 0002:0000bd60       __real_qnanbit             0000000180040d60     libucrt:log10.obj
 0002:0000bd70       __int_1023                 0000000180040d70     libucrt:log10.obj
 0002:0000bd80       __mask_001                 0000000180040d80     libucrt:log10.obj
 0002:0000bd90       __mask_mant                0000000180040d90     libucrt:log10.obj
 0002:0000bda0       __mask_mant_top8           0000000180040da0     libucrt:log10.obj
 0002:0000bdb0       __mask_mant9               0000000180040db0     libucrt:log10.obj
 0002:0000bdc0       __real_log10_e             0000000180040dc0     libucrt:log10.obj
 0002:0000bdd0       __real_log10_e_lead        0000000180040dd0     libucrt:log10.obj
 0002:0000bde0       __real_log10_e_tail        0000000180040de0     libucrt:log10.obj
 0002:0000bdf0       __real_log10_2_lead        0000000180040df0     libucrt:log10.obj
 0002:0000be00       __real_log10_2_tail        0000000180040e00     libucrt:log10.obj
 0002:0000be10       __real_two                 0000000180040e10     libucrt:log10.obj
 0002:0000be20       __real_one                 0000000180040e20     libucrt:log10.obj
 0002:0000be30       __real_half                0000000180040e30     libucrt:log10.obj
 0002:0000be40       __mask_100                 0000000180040e40     libucrt:log10.obj
 0002:0000be50       __real_1_over_512          0000000180040e50     libucrt:log10.obj
 0002:0000be60       __real_1_over_2            0000000180040e60     libucrt:log10.obj
 0002:0000be70       __real_1_over_3            0000000180040e70     libucrt:log10.obj
 0002:0000be80       __real_1_over_4            0000000180040e80     libucrt:log10.obj
 0002:0000be90       __real_1_over_5            0000000180040e90     libucrt:log10.obj
 0002:0000bea0       __real_1_over_6            0000000180040ea0     libucrt:log10.obj
 0002:0000beb0       __real_neg_1023            0000000180040eb0     libucrt:log10.obj
 0002:0000bec0       __mask_2045                0000000180040ec0     libucrt:log10.obj
 0002:0000bed0       __real_threshold           0000000180040ed0     libucrt:log10.obj
 0002:0000bee0       __real_near_one_lt         0000000180040ee0     libucrt:log10.obj
 0002:0000bef0       __real_near_one_gt         0000000180040ef0     libucrt:log10.obj
 0002:0000bf00       __real_min_norm            0000000180040f00     libucrt:log10.obj
 0002:0000bf10       __real_notsign             0000000180040f10     libucrt:log10.obj
 0002:0000bf20       __real_ca1                 0000000180040f20     libucrt:log10.obj
 0002:0000bf30       __real_ca2                 0000000180040f30     libucrt:log10.obj
 0002:0000bf40       __real_ca3                 0000000180040f40     libucrt:log10.obj
 0002:0000bf50       __real_ca4                 0000000180040f50     libucrt:log10.obj
 0002:0000bf60       __mask_lower               0000000180040f60     libucrt:log10.obj
 0002:0000bf70       __flag_x_zero              0000000180040f70     libucrt:log10.obj
 0002:0000bf74       __flag_x_neg               0000000180040f74     libucrt:log10.obj
 0002:0000bf78       __flag_x_nan               0000000180040f78     libucrt:log10.obj
 0002:0000cfa8       GS_ExceptionPointers       0000000180041fa8     LIBCMT:gs_report.obj
 0002:0000d398       $unwind$loc_prepare_block  0000000180042398     ringmod.o
 0002:0000d3ac       $unwind$loc_process_fx_replace 00000001800423ac     ringmod.o
 0002:0000d3b8       $chain$3$loc_process_fx_replace 00000001800423b8     ringmod.o
 0002:0000d3d8       $chain$6$loc_process_fx_replace 00000001800423d8     ringmod.o
 0002:0000d3f4       $chain$7$loc_process_fx_replace 00000001800423f4     ringmod.o
 0002:0000d408       $chain$8$loc_process_fx_replace 0000000180042408     ringmod.o
 0002:0000d418       $chain$9$loc_process_fx_replace 0000000180042418     ringmod.o
 0002:0000d428       $chain$10$loc_process_fx_replace 0000000180042428     ringmod.o
 0002:0000d438       $unwind$loc_shared_new     0000000180042438     ringmod.o
 0002:0000d440       $unwind$loc_voice_new      0000000180042440     ringmod.o
 0002:0000d44c       $unwind$ringmod_init       000000018004244c     ringmod.o
 0002:0000d454       $unwind$loc_prepare_block  0000000180042454     ws_tanh.o
 0002:0000d46c       $unwind$loc_process_fx_replace 000000018004246c     ws_tanh.o
 0002:0000d47c       $chain$3$loc_process_fx_replace 000000018004247c     ws_tanh.o
 0002:0000d49c       $chain$7$loc_process_fx_replace 000000018004249c     ws_tanh.o
 0002:0000d4bc       $chain$8$loc_process_fx_replace 00000001800424bc     ws_tanh.o
 0002:0000d4cc       $chain$9$loc_process_fx_replace 00000001800424cc     ws_tanh.o
 0002:0000d4dc       $unwind$loc_shared_new     00000001800424dc     ws_tanh.o
 0002:0000d4e4       $unwind$loc_voice_new      00000001800424e4     ws_tanh.o
 0002:0000d4ec       $unwind$ws_tanh_init       00000001800424ec     ws_tanh.o
 0002:0000d4f4       $unwind$loc_prepare_block  00000001800424f4     ws_tanh_asym.o
 0002:0000d51c       $unwind$loc_process_fx_replace 000000018004251c     ws_tanh_asym.o
 0002:0000d530       $chain$11$loc_process_fx_replace 0000000180042530     ws_tanh_asym.o
 0002:0000d570       $chain$12$loc_process_fx_replace 0000000180042570     ws_tanh_asym.o
 0002:0000d580       $unwind$loc_shared_new     0000000180042580     ws_tanh_asym.o
 0002:0000d588       $unwind$loc_voice_new      0000000180042588     ws_tanh_asym.o
 0002:0000d594       $unwind$ws_tanh_asym_init  0000000180042594     ws_tanh_asym.o
 0002:0000d59c       $unwind$loc_prepare_block  000000018004259c     bitcrusher.o
 0002:0000d5a4       $unwind$loc_process_fx_replace 00000001800425a4     bitcrusher.o
 0002:0000d5bc       $chain$2$loc_process_fx_replace 00000001800425bc     bitcrusher.o
 0002:0000d5d0       $chain$3$loc_process_fx_replace 00000001800425d0     bitcrusher.o
 0002:0000d5e4       $chain$4$loc_process_fx_replace 00000001800425e4     bitcrusher.o
 0002:0000d5f4       $chain$5$loc_process_fx_replace 00000001800425f4     bitcrusher.o
 0002:0000d604       $unwind$loc_shared_new     0000000180042604     bitcrusher.o
 0002:0000d60c       $unwind$loc_voice_new      000000018004260c     bitcrusher.o
 0002:0000d614       $unwind$bitcrusher_init    0000000180042614     bitcrusher.o
 0002:0000d61c       $unwind$loc_prepare_block  000000018004261c     ws_exp.o
 0002:0000d640       $unwind$loc_process_fx_replace 0000000180042640     ws_exp.o
 0002:0000d654       $chain$9$loc_process_fx_replace 0000000180042654     ws_exp.o
 0002:0000d68c       $chain$12$loc_process_fx_replace 000000018004268c     ws_exp.o
 0002:0000d6a8       $chain$13$loc_process_fx_replace 00000001800426a8     ws_exp.o
 0002:0000d6b8       $chain$14$loc_process_fx_replace 00000001800426b8     ws_exp.o
 0002:0000d6c8       $unwind$loc_shared_new     00000001800426c8     ws_exp.o
 0002:0000d6d0       $unwind$loc_voice_new      00000001800426d0     ws_exp.o
 0002:0000d6d8       $unwind$ws_exp_init        00000001800426d8     ws_exp.o
 0002:0000d6e0       $unwind$biquad_init        00000001800426e0     ws_fm.o
 0002:0000d6f0       $unwind$biquad_filter      00000001800426f0     ws_fm.o
 0002:0000d6fc       $unwind$loc_prepare_block  00000001800426fc     ws_fm.o
 0002:0000d724       $unwind$loc_process_fx_replace 0000000180042724     ws_fm.o
 0002:0000d730       $chain$2$loc_process_fx_replace 0000000180042730     ws_fm.o
 0002:0000d74c       $chain$11$loc_process_fx_replace 000000018004274c     ws_fm.o
 0002:0000d780       $chain$12$loc_process_fx_replace 0000000180042780     ws_fm.o
 0002:0000d794       $chain$13$loc_process_fx_replace 0000000180042794     ws_fm.o
 0002:0000d7a4       $chain$14$loc_process_fx_replace 00000001800427a4     ws_fm.o
 0002:0000d7b4       $chain$15$loc_process_fx_replace 00000001800427b4     ws_fm.o
 0002:0000d7c4       $unwind$loc_shared_new     00000001800427c4     ws_fm.o
 0002:0000d7cc       $unwind$loc_voice_new      00000001800427cc     ws_fm.o
 0002:0000d7d8       $unwind$ws_fm_init         00000001800427d8     ws_fm.o
 0002:0000d7e0       $unwind$loc_process_fx_replace 00000001800427e0     resample_nearest.o
 0002:0000d7f4       $chain$0$loc_process_fx_replace 00000001800427f4     resample_nearest.o
 0002:0000d808       $chain$1$loc_process_fx_replace 0000000180042808     resample_nearest.o
 0002:0000d818       $unwind$loc_shared_new     0000000180042818     resample_nearest.o
 0002:0000d820       $unwind$loc_voice_new      0000000180042820     resample_nearest.o
 0002:0000d82c       $unwind$resample_nearest_init 000000018004282c     resample_nearest.o
 0002:0000d834       $unwind$loc_process_fx_replace 0000000180042834     resample_linear.o
 0002:0000d848       $chain$2$loc_process_fx_replace 0000000180042848     resample_linear.o
 0002:0000d864       $chain$3$loc_process_fx_replace 0000000180042864     resample_linear.o
 0002:0000d878       $chain$4$loc_process_fx_replace 0000000180042878     resample_linear.o
 0002:0000d888       $chain$5$loc_process_fx_replace 0000000180042888     resample_linear.o
 0002:0000d898       $unwind$loc_shared_new     0000000180042898     resample_linear.o
 0002:0000d8a0       $unwind$loc_voice_new      00000001800428a0     resample_linear.o
 0002:0000d8ac       $unwind$resample_linear_init 00000001800428ac     resample_linear.o
 0002:0000d8b4       $unwind$?calcParams@StBiquadCoeff@@QEAAXHMMM@Z 00000001800428b4     biquad.o
 0002:0000d8d4       $chain$0$?calcParams@StBiquadCoeff@@QEAAXHMMM@Z 00000001800428d4     biquad.o
 0002:0000d8e8       $chain$1$?calcParams@StBiquadCoeff@@QEAAXHMMM@Z 00000001800428e8     biquad.o
 0002:0000d8f8       $chain$2$?calcParams@StBiquadCoeff@@QEAAXHMMM@Z 00000001800428f8     biquad.o
 0002:0000d90c       $chain$4$?calcParams@StBiquadCoeff@@QEAAXHMMM@Z 000000018004290c     biquad.o
 0002:0000d924       $chain$5$?calcParams@StBiquadCoeff@@QEAAXHMMM@Z 0000000180042924     biquad.o
 0002:0000d934       $chain$6$?calcParams@StBiquadCoeff@@QEAAXHMMM@Z 0000000180042934     biquad.o
 0002:0000d944       $unwind$?calcParams@StBiquad@@QEAAXIHMMM@Z 0000000180042944     biquad_lpf_1.o
 0002:0000d944       $unwind$strpbrk            0000000180042944     libucrt:strpbrk.obj
 0002:0000d954       $unwind$?loc_prepare_block@@YAXPEAUst_plugin_voice_s@@IMMMM@Z 0000000180042954     biquad_lpf_1.o
 0002:0000d988       $unwind$?loc_process_fx_replace@@YAXPEAUst_plugin_voice_s@@HPEBMPEAMI@Z 0000000180042988     biquad_lpf_1.o
 0002:0000d990       $chain$7$?loc_process_fx_replace@@YAXPEAUst_plugin_voice_s@@HPEBMPEAMI@Z 0000000180042990     biquad_lpf_1.o
 0002:0000d9c0       $chain$8$?loc_process_fx_replace@@YAXPEAUst_plugin_voice_s@@HPEBMPEAMI@Z 00000001800429c0     biquad_lpf_1.o
 0002:0000d9d0       $unwind$?loc_shared_new@@YAPEAUst_plugin_shared_s@@PEAUst_plugin_info_s@@@Z 00000001800429d0     biquad_lpf_1.o
 0002:0000d9d8       $unwind$?loc_voice_new@@YAPEAUst_plugin_voice_s@@PEAUst_plugin_info_s@@@Z 00000001800429d8     biquad_lpf_1.o
 0002:0000d9e4       $unwind$biquad_lpf_1_init  00000001800429e4     biquad_lpf_1.o
 0002:0000d9ec       $unwind$?loc_prepare_block@@YAXPEAUst_plugin_voice_s@@IMMMM@Z 00000001800429ec     biquad_lpf_2.o
 0002:0000da24       $unwind$?loc_process_fx_replace@@YAXPEAUst_plugin_voice_s@@HPEBMPEAMI@Z 0000000180042a24     biquad_lpf_2.o
 0002:0000da2c       $chain$8$?loc_process_fx_replace@@YAXPEAUst_plugin_voice_s@@HPEBMPEAMI@Z 0000000180042a2c     biquad_lpf_2.o
 0002:0000da60       $chain$9$?loc_process_fx_replace@@YAXPEAUst_plugin_voice_s@@HPEBMPEAMI@Z 0000000180042a60     biquad_lpf_2.o
 0002:0000da70       $unwind$?loc_shared_new@@YAPEAUst_plugin_shared_s@@PEAUst_plugin_info_s@@@Z 0000000180042a70     biquad_lpf_2.o
 0002:0000da78       $unwind$?loc_voice_new@@YAPEAUst_plugin_voice_s@@PEAUst_plugin_info_s@@@Z 0000000180042a78     biquad_lpf_2.o
 0002:0000da84       $unwind$biquad_lpf_2_init  0000000180042a84     biquad_lpf_2.o
 0002:0000da8c       $unwind$?loc_prepare_block@@YAXPEAUst_plugin_voice_s@@IMMMM@Z 0000000180042a8c     biquad_lpf_3.o
 0002:0000dac4       $unwind$?loc_process_fx_replace@@YAXPEAUst_plugin_voice_s@@HPEBMPEAMI@Z 0000000180042ac4     biquad_lpf_3.o
 0002:0000dacc       $chain$8$?loc_process_fx_replace@@YAXPEAUst_plugin_voice_s@@HPEBMPEAMI@Z 0000000180042acc     biquad_lpf_3.o
 0002:0000db00       $chain$9$?loc_process_fx_replace@@YAXPEAUst_plugin_voice_s@@HPEBMPEAMI@Z 0000000180042b00     biquad_lpf_3.o
 0002:0000db10       $unwind$?loc_shared_new@@YAPEAUst_plugin_shared_s@@PEAUst_plugin_info_s@@@Z 0000000180042b10     biquad_lpf_3.o
 0002:0000db18       $unwind$?loc_voice_new@@YAPEAUst_plugin_voice_s@@PEAUst_plugin_info_s@@@Z 0000000180042b18     biquad_lpf_3.o
 0002:0000db24       $unwind$biquad_lpf_3_init  0000000180042b24     biquad_lpf_3.o
 0002:0000db2c       $unwind$?loc_prepare_block@@YAXPEAUst_plugin_voice_s@@IMMMM@Z 0000000180042b2c     biquad_lpf_4.o
 0002:0000db64       $unwind$?loc_process_fx_replace@@YAXPEAUst_plugin_voice_s@@HPEBMPEAMI@Z 0000000180042b64     biquad_lpf_4.o
 0002:0000db6c       $chain$9$?loc_process_fx_replace@@YAXPEAUst_plugin_voice_s@@HPEBMPEAMI@Z 0000000180042b6c     biquad_lpf_4.o
 0002:0000dba4       $chain$10$?loc_process_fx_replace@@YAXPEAUst_plugin_voice_s@@HPEBMPEAMI@Z 0000000180042ba4     biquad_lpf_4.o
 0002:0000dbb4       $unwind$?loc_shared_new@@YAPEAUst_plugin_shared_s@@PEAUst_plugin_info_s@@@Z 0000000180042bb4     biquad_lpf_4.o
 0002:0000dbbc       $unwind$?loc_voice_new@@YAPEAUst_plugin_voice_s@@PEAUst_plugin_info_s@@@Z 0000000180042bbc     biquad_lpf_4.o
 0002:0000dbc8       $unwind$biquad_lpf_4_init  0000000180042bc8     biquad_lpf_4.o
 0002:0000dbd0       $unwind$?loc_prepare_block@@YAXPEAUst_plugin_voice_s@@IMMMM@Z 0000000180042bd0     biquad_hpf_1.o
 0002:0000dc04       $unwind$?loc_process_fx_replace@@YAXPEAUst_plugin_voice_s@@HPEBMPEAMI@Z 0000000180042c04     biquad_hpf_1.o
 0002:0000dc0c       $chain$7$?loc_process_fx_replace@@YAXPEAUst_plugin_voice_s@@HPEBMPEAMI@Z 0000000180042c0c     biquad_hpf_1.o
 0002:0000dc3c       $chain$8$?loc_process_fx_replace@@YAXPEAUst_plugin_voice_s@@HPEBMPEAMI@Z 0000000180042c3c     biquad_hpf_1.o
 0002:0000dc4c       $unwind$?loc_shared_new@@YAPEAUst_plugin_shared_s@@PEAUst_plugin_info_s@@@Z 0000000180042c4c     biquad_hpf_1.o
 0002:0000dc54       $unwind$?loc_voice_new@@YAPEAUst_plugin_voice_s@@PEAUst_plugin_info_s@@@Z 0000000180042c54     biquad_hpf_1.o
 0002:0000dc60       $unwind$biquad_hpf_1_init  0000000180042c60     biquad_hpf_1.o
 0002:0000dc68       $unwind$?loc_prepare_block@@YAXPEAUst_plugin_voice_s@@IMMMM@Z 0000000180042c68     biquad_hpf_2.o
 0002:0000dca0       $unwind$?loc_process_fx_replace@@YAXPEAUst_plugin_voice_s@@HPEBMPEAMI@Z 0000000180042ca0     biquad_hpf_2.o
 0002:0000dca8       $chain$8$?loc_process_fx_replace@@YAXPEAUst_plugin_voice_s@@HPEBMPEAMI@Z 0000000180042ca8     biquad_hpf_2.o
 0002:0000dcdc       $chain$9$?loc_process_fx_replace@@YAXPEAUst_plugin_voice_s@@HPEBMPEAMI@Z 0000000180042cdc     biquad_hpf_2.o
 0002:0000dcec       $unwind$?loc_shared_new@@YAPEAUst_plugin_shared_s@@PEAUst_plugin_info_s@@@Z 0000000180042cec     biquad_hpf_2.o
 0002:0000dcf4       $unwind$?loc_voice_new@@YAPEAUst_plugin_voice_s@@PEAUst_plugin_info_s@@@Z 0000000180042cf4     biquad_hpf_2.o
 0002:0000dd00       $unwind$biquad_hpf_2_init  0000000180042d00     biquad_hpf_2.o
 0002:0000dd08       $unwind$?loc_prepare_block@@YAXPEAUst_plugin_voice_s@@IMMMM@Z 0000000180042d08     biquad_hpf_3.o
 0002:0000dd40       $unwind$?loc_process_fx_replace@@YAXPEAUst_plugin_voice_s@@HPEBMPEAMI@Z 0000000180042d40     biquad_hpf_3.o
 0002:0000dd48       $chain$8$?loc_process_fx_replace@@YAXPEAUst_plugin_voice_s@@HPEBMPEAMI@Z 0000000180042d48     biquad_hpf_3.o
 0002:0000dd7c       $chain$9$?loc_process_fx_replace@@YAXPEAUst_plugin_voice_s@@HPEBMPEAMI@Z 0000000180042d7c     biquad_hpf_3.o
 0002:0000dd8c       $unwind$?loc_shared_new@@YAPEAUst_plugin_shared_s@@PEAUst_plugin_info_s@@@Z 0000000180042d8c     biquad_hpf_3.o
 0002:0000dd94       $unwind$?loc_voice_new@@YAPEAUst_plugin_voice_s@@PEAUst_plugin_info_s@@@Z 0000000180042d94     biquad_hpf_3.o
 0002:0000dda0       $unwind$biquad_hpf_3_init  0000000180042da0     biquad_hpf_3.o
 0002:0000dda8       $unwind$?loc_prepare_block@@YAXPEAUst_plugin_voice_s@@IMMMM@Z 0000000180042da8     biquad_hpf_4.o
 0002:0000dde0       $unwind$?loc_process_fx_replace@@YAXPEAUst_plugin_voice_s@@HPEBMPEAMI@Z 0000000180042de0     biquad_hpf_4.o
 0002:0000dde8       $chain$9$?loc_process_fx_replace@@YAXPEAUst_plugin_voice_s@@HPEBMPEAMI@Z 0000000180042de8     biquad_hpf_4.o
 0002:0000de20       $chain$10$?loc_process_fx_replace@@YAXPEAUst_plugin_voice_s@@HPEBMPEAMI@Z 0000000180042e20     biquad_hpf_4.o
 0002:0000de30       $unwind$?loc_shared_new@@YAPEAUst_plugin_shared_s@@PEAUst_plugin_info_s@@@Z 0000000180042e30     biquad_hpf_4.o
 0002:0000de38       $unwind$?loc_voice_new@@YAPEAUst_plugin_voice_s@@PEAUst_plugin_info_s@@@Z 0000000180042e38     biquad_hpf_4.o
 0002:0000de44       $unwind$biquad_hpf_4_init  0000000180042e44     biquad_hpf_4.o
 0002:0000de4c       $unwind$?loc_prepare_block@@YAXPEAUst_plugin_voice_s@@IMMMM@Z 0000000180042e4c     biquad_bpf_1.o
 0002:0000de80       $unwind$?loc_process_fx_replace@@YAXPEAUst_plugin_voice_s@@HPEBMPEAMI@Z 0000000180042e80     biquad_bpf_1.o
 0002:0000de88       $chain$7$?loc_process_fx_replace@@YAXPEAUst_plugin_voice_s@@HPEBMPEAMI@Z 0000000180042e88     biquad_bpf_1.o
 0002:0000deb8       $chain$8$?loc_process_fx_replace@@YAXPEAUst_plugin_voice_s@@HPEBMPEAMI@Z 0000000180042eb8     biquad_bpf_1.o
 0002:0000dec8       $unwind$?loc_shared_new@@YAPEAUst_plugin_shared_s@@PEAUst_plugin_info_s@@@Z 0000000180042ec8     biquad_bpf_1.o
 0002:0000ded0       $unwind$?loc_voice_new@@YAPEAUst_plugin_voice_s@@PEAUst_plugin_info_s@@@Z 0000000180042ed0     biquad_bpf_1.o
 0002:0000dedc       $unwind$biquad_bpf_1_init  0000000180042edc     biquad_bpf_1.o
 0002:0000dee4       $unwind$?loc_prepare_block@@YAXPEAUst_plugin_voice_s@@IMMMM@Z 0000000180042ee4     biquad_bpf_2.o
 0002:0000df1c       $unwind$?loc_process_fx_replace@@YAXPEAUst_plugin_voice_s@@HPEBMPEAMI@Z 0000000180042f1c     biquad_bpf_2.o
 0002:0000df24       $chain$9$?loc_process_fx_replace@@YAXPEAUst_plugin_voice_s@@HPEBMPEAMI@Z 0000000180042f24     biquad_bpf_2.o
 0002:0000df5c       $chain$10$?loc_process_fx_replace@@YAXPEAUst_plugin_voice_s@@HPEBMPEAMI@Z 0000000180042f5c     biquad_bpf_2.o
 0002:0000df6c       $unwind$?loc_shared_new@@YAPEAUst_plugin_shared_s@@PEAUst_plugin_info_s@@@Z 0000000180042f6c     biquad_bpf_2.o
 0002:0000df74       $unwind$?loc_voice_new@@YAPEAUst_plugin_voice_s@@PEAUst_plugin_info_s@@@Z 0000000180042f74     biquad_bpf_2.o
 0002:0000df80       $unwind$biquad_bpf_2_init  0000000180042f80     biquad_bpf_2.o
 0002:0000df88       $unwind$?loc_prepare_block@@YAXPEAUst_plugin_voice_s@@IMMMM@Z 0000000180042f88     biquad_bpf_3.o
 0002:0000dfc0       $unwind$?loc_process_fx_replace@@YAXPEAUst_plugin_voice_s@@HPEBMPEAMI@Z 0000000180042fc0     biquad_bpf_3.o
 0002:0000dfc8       $chain$9$?loc_process_fx_replace@@YAXPEAUst_plugin_voice_s@@HPEBMPEAMI@Z 0000000180042fc8     biquad_bpf_3.o
 0002:0000e000       $chain$10$?loc_process_fx_replace@@YAXPEAUst_plugin_voice_s@@HPEBMPEAMI@Z 0000000180043000     biquad_bpf_3.o
 0002:0000e010       $unwind$?loc_shared_new@@YAPEAUst_plugin_shared_s@@PEAUst_plugin_info_s@@@Z 0000000180043010     biquad_bpf_3.o
 0002:0000e018       $unwind$?loc_voice_new@@YAPEAUst_plugin_voice_s@@PEAUst_plugin_info_s@@@Z 0000000180043018     biquad_bpf_3.o
 0002:0000e024       $unwind$biquad_bpf_3_init  0000000180043024     biquad_bpf_3.o
 0002:0000e02c       $unwind$?loc_prepare_block@@YAXPEAUst_plugin_voice_s@@IMMMM@Z 000000018004302c     biquad_bpf_4.o
 0002:0000e064       $unwind$?loc_process_fx_replace@@YAXPEAUst_plugin_voice_s@@HPEBMPEAMI@Z 0000000180043064     biquad_bpf_4.o
 0002:0000e06c       $chain$9$?loc_process_fx_replace@@YAXPEAUst_plugin_voice_s@@HPEBMPEAMI@Z 000000018004306c     biquad_bpf_4.o
 0002:0000e0a4       $chain$10$?loc_process_fx_replace@@YAXPEAUst_plugin_voice_s@@HPEBMPEAMI@Z 00000001800430a4     biquad_bpf_4.o
 0002:0000e0b4       $unwind$?loc_shared_new@@YAPEAUst_plugin_shared_s@@PEAUst_plugin_info_s@@@Z 00000001800430b4     biquad_bpf_4.o
 0002:0000e0bc       $unwind$?loc_voice_new@@YAPEAUst_plugin_voice_s@@PEAUst_plugin_info_s@@@Z 00000001800430bc     biquad_bpf_4.o
 0002:0000e0c8       $unwind$biquad_bpf_4_init  00000001800430c8     biquad_bpf_4.o
 0002:0000e0d0       $unwind$?loc_prepare_block@@YAXPEAUst_plugin_voice_s@@IMMMM@Z 00000001800430d0     biquad_brf_1.o
 0002:0000e100       $chain$0$?loc_prepare_block@@YAXPEAUst_plugin_voice_s@@IMMMM@Z 0000000180043100     biquad_brf_1.o
 0002:0000e114       $chain$1$?loc_prepare_block@@YAXPEAUst_plugin_voice_s@@IMMMM@Z 0000000180043114     biquad_brf_1.o
 0002:0000e124       $unwind$?loc_process_fx_replace@@YAXPEAUst_plugin_voice_s@@HPEBMPEAMI@Z 0000000180043124     biquad_brf_1.o
 0002:0000e12c       $chain$7$?loc_process_fx_replace@@YAXPEAUst_plugin_voice_s@@HPEBMPEAMI@Z 000000018004312c     biquad_brf_1.o
 0002:0000e15c       $chain$8$?loc_process_fx_replace@@YAXPEAUst_plugin_voice_s@@HPEBMPEAMI@Z 000000018004315c     biquad_brf_1.o
 0002:0000e16c       $unwind$?loc_shared_new@@YAPEAUst_plugin_shared_s@@PEAUst_plugin_info_s@@@Z 000000018004316c     biquad_brf_1.o
 0002:0000e174       $unwind$?loc_voice_new@@YAPEAUst_plugin_voice_s@@PEAUst_plugin_info_s@@@Z 0000000180043174     biquad_brf_1.o
 0002:0000e180       $unwind$biquad_brf_1_init  0000000180043180     biquad_brf_1.o
 0002:0000e188       $unwind$?loc_prepare_block@@YAXPEAUst_plugin_voice_s@@IMMMM@Z 0000000180043188     biquad_brf_2.o
 0002:0000e1c0       $unwind$?loc_process_fx_replace@@YAXPEAUst_plugin_voice_s@@HPEBMPEAMI@Z 00000001800431c0     biquad_brf_2.o
 0002:0000e1c8       $chain$8$?loc_process_fx_replace@@YAXPEAUst_plugin_voice_s@@HPEBMPEAMI@Z 00000001800431c8     biquad_brf_2.o
 0002:0000e1fc       $chain$9$?loc_process_fx_replace@@YAXPEAUst_plugin_voice_s@@HPEBMPEAMI@Z 00000001800431fc     biquad_brf_2.o
 0002:0000e20c       $unwind$?loc_shared_new@@YAPEAUst_plugin_shared_s@@PEAUst_plugin_info_s@@@Z 000000018004320c     biquad_brf_2.o
 0002:0000e214       $unwind$?loc_voice_new@@YAPEAUst_plugin_voice_s@@PEAUst_plugin_info_s@@@Z 0000000180043214     biquad_brf_2.o
 0002:0000e220       $unwind$biquad_brf_2_init  0000000180043220     biquad_brf_2.o
 0002:0000e228       $unwind$?loc_prepare_block@@YAXPEAUst_plugin_voice_s@@IMMMM@Z 0000000180043228     biquad_brf_3.o
 0002:0000e260       $unwind$?loc_process_fx_replace@@YAXPEAUst_plugin_voice_s@@HPEBMPEAMI@Z 0000000180043260     biquad_brf_3.o
 0002:0000e268       $chain$8$?loc_process_fx_replace@@YAXPEAUst_plugin_voice_s@@HPEBMPEAMI@Z 0000000180043268     biquad_brf_3.o
 0002:0000e29c       $chain$9$?loc_process_fx_replace@@YAXPEAUst_plugin_voice_s@@HPEBMPEAMI@Z 000000018004329c     biquad_brf_3.o
 0002:0000e2ac       $unwind$?loc_shared_new@@YAPEAUst_plugin_shared_s@@PEAUst_plugin_info_s@@@Z 00000001800432ac     biquad_brf_3.o
 0002:0000e2b4       $unwind$?loc_voice_new@@YAPEAUst_plugin_voice_s@@PEAUst_plugin_info_s@@@Z 00000001800432b4     biquad_brf_3.o
 0002:0000e2c0       $unwind$biquad_brf_3_init  00000001800432c0     biquad_brf_3.o
 0002:0000e2c8       $unwind$?loc_prepare_block@@YAXPEAUst_plugin_voice_s@@IMMMM@Z 00000001800432c8     biquad_brf_4.o
 0002:0000e300       $unwind$?loc_process_fx_replace@@YAXPEAUst_plugin_voice_s@@HPEBMPEAMI@Z 0000000180043300     biquad_brf_4.o
 0002:0000e308       $chain$9$?loc_process_fx_replace@@YAXPEAUst_plugin_voice_s@@HPEBMPEAMI@Z 0000000180043308     biquad_brf_4.o
 0002:0000e340       $chain$10$?loc_process_fx_replace@@YAXPEAUst_plugin_voice_s@@HPEBMPEAMI@Z 0000000180043340     biquad_brf_4.o
 0002:0000e350       $unwind$?loc_shared_new@@YAPEAUst_plugin_shared_s@@PEAUst_plugin_info_s@@@Z 0000000180043350     biquad_brf_4.o
 0002:0000e358       $unwind$?loc_voice_new@@YAPEAUst_plugin_voice_s@@PEAUst_plugin_info_s@@@Z 0000000180043358     biquad_brf_4.o
 0002:0000e364       $unwind$biquad_brf_4_init  0000000180043364     biquad_brf_4.o
 0002:0000e36c       $unwind$?loc_prepare_block@@YAXPEAUst_plugin_voice_s@@IMMMM@Z 000000018004336c     biquad_peq_1.o
 0002:0000e3a8       $unwind$?loc_process_fx_replace@@YAXPEAUst_plugin_voice_s@@HPEBMPEAMI@Z 00000001800433a8     biquad_peq_1.o
 0002:0000e3b0       $chain$7$?loc_process_fx_replace@@YAXPEAUst_plugin_voice_s@@HPEBMPEAMI@Z 00000001800433b0     biquad_peq_1.o
 0002:0000e3e0       $chain$8$?loc_process_fx_replace@@YAXPEAUst_plugin_voice_s@@HPEBMPEAMI@Z 00000001800433e0     biquad_peq_1.o
 0002:0000e3f0       $unwind$?loc_shared_new@@YAPEAUst_plugin_shared_s@@PEAUst_plugin_info_s@@@Z 00000001800433f0     biquad_peq_1.o
 0002:0000e3f8       $unwind$?loc_voice_new@@YAPEAUst_plugin_voice_s@@PEAUst_plugin_info_s@@@Z 00000001800433f8     biquad_peq_1.o
 0002:0000e404       $unwind$biquad_peq_1_init  0000000180043404     biquad_peq_1.o
 0002:0000e40c       $unwind$?loc_prepare_block@@YAXPEAUst_plugin_voice_s@@IMMMM@Z 000000018004340c     biquad_peq_2.o
 0002:0000e448       $unwind$?loc_process_fx_replace@@YAXPEAUst_plugin_voice_s@@HPEBMPEAMI@Z 0000000180043448     biquad_peq_2.o
 0002:0000e450       $chain$10$?loc_process_fx_replace@@YAXPEAUst_plugin_voice_s@@HPEBMPEAMI@Z 0000000180043450     biquad_peq_2.o
 0002:0000e48c       $chain$11$?loc_process_fx_replace@@YAXPEAUst_plugin_voice_s@@HPEBMPEAMI@Z 000000018004348c     biquad_peq_2.o
 0002:0000e49c       $unwind$?loc_shared_new@@YAPEAUst_plugin_shared_s@@PEAUst_plugin_info_s@@@Z 000000018004349c     biquad_peq_2.o
 0002:0000e4a4       $unwind$?loc_voice_new@@YAPEAUst_plugin_voice_s@@PEAUst_plugin_info_s@@@Z 00000001800434a4     biquad_peq_2.o
 0002:0000e4b0       $unwind$biquad_peq_2_init  00000001800434b0     biquad_peq_2.o
 0002:0000e4b8       $unwind$?loc_prepare_block@@YAXPEAUst_plugin_voice_s@@IMMMM@Z 00000001800434b8     biquad_peq_3.o
 0002:0000e4f4       $unwind$?loc_process_fx_replace@@YAXPEAUst_plugin_voice_s@@HPEBMPEAMI@Z 00000001800434f4     biquad_peq_3.o
 0002:0000e4fc       $chain$10$?loc_process_fx_replace@@YAXPEAUst_plugin_voice_s@@HPEBMPEAMI@Z 00000001800434fc     biquad_peq_3.o
 0002:0000e538       $chain$11$?loc_process_fx_replace@@YAXPEAUst_plugin_voice_s@@HPEBMPEAMI@Z 0000000180043538     biquad_peq_3.o
 0002:0000e548       $unwind$?loc_shared_new@@YAPEAUst_plugin_shared_s@@PEAUst_plugin_info_s@@@Z 0000000180043548     biquad_peq_3.o
 0002:0000e550       $unwind$?loc_voice_new@@YAPEAUst_plugin_voice_s@@PEAUst_plugin_info_s@@@Z 0000000180043550     biquad_peq_3.o
 0002:0000e55c       $unwind$biquad_peq_3_init  000000018004355c     biquad_peq_3.o
 0002:0000e564       $unwind$?loc_prepare_block@@YAXPEAUst_plugin_voice_s@@IMMMM@Z 0000000180043564     biquad_peq_4.o
 0002:0000e5a0       $unwind$?loc_process_fx_replace@@YAXPEAUst_plugin_voice_s@@HPEBMPEAMI@Z 00000001800435a0     biquad_peq_4.o
 0002:0000e5a8       $chain$12$?loc_process_fx_replace@@YAXPEAUst_plugin_voice_s@@HPEBMPEAMI@Z 00000001800435a8     biquad_peq_4.o
 0002:0000e5ec       $chain$13$?loc_process_fx_replace@@YAXPEAUst_plugin_voice_s@@HPEBMPEAMI@Z 00000001800435ec     biquad_peq_4.o
 0002:0000e5fc       $unwind$?loc_shared_new@@YAPEAUst_plugin_shared_s@@PEAUst_plugin_info_s@@@Z 00000001800435fc     biquad_peq_4.o
 0002:0000e604       $unwind$?loc_voice_new@@YAPEAUst_plugin_voice_s@@PEAUst_plugin_info_s@@@Z 0000000180043604     biquad_peq_4.o
 0002:0000e610       $unwind$biquad_peq_4_init  0000000180043610     biquad_peq_4.o
 0002:0000e618       $unwind$?loc_prepare_block@@YAXPEAUst_plugin_voice_s@@IMMMM@Z 0000000180043618     biquad_lsh_1.o
 0002:0000e650       $unwind$?loc_process_fx_replace@@YAXPEAUst_plugin_voice_s@@HPEBMPEAMI@Z 0000000180043650     biquad_lsh_1.o
 0002:0000e658       $chain$7$?loc_process_fx_replace@@YAXPEAUst_plugin_voice_s@@HPEBMPEAMI@Z 0000000180043658     biquad_lsh_1.o
 0002:0000e688       $chain$8$?loc_process_fx_replace@@YAXPEAUst_plugin_voice_s@@HPEBMPEAMI@Z 0000000180043688     biquad_lsh_1.o
 0002:0000e698       $unwind$?loc_shared_new@@YAPEAUst_plugin_shared_s@@PEAUst_plugin_info_s@@@Z 0000000180043698     biquad_lsh_1.o
 0002:0000e6a0       $unwind$?loc_voice_new@@YAPEAUst_plugin_voice_s@@PEAUst_plugin_info_s@@@Z 00000001800436a0     biquad_lsh_1.o
 0002:0000e6ac       $unwind$biquad_lsh_1_init  00000001800436ac     biquad_lsh_1.o
 0002:0000e6b4       $unwind$?loc_prepare_block@@YAXPEAUst_plugin_voice_s@@IMMMM@Z 00000001800436b4     biquad_lsh_2.o
 0002:0000e6f0       $unwind$?loc_process_fx_replace@@YAXPEAUst_plugin_voice_s@@HPEBMPEAMI@Z 00000001800436f0     biquad_lsh_2.o
 0002:0000e6f8       $chain$10$?loc_process_fx_replace@@YAXPEAUst_plugin_voice_s@@HPEBMPEAMI@Z 00000001800436f8     biquad_lsh_2.o
 0002:0000e734       $chain$11$?loc_process_fx_replace@@YAXPEAUst_plugin_voice_s@@HPEBMPEAMI@Z 0000000180043734     biquad_lsh_2.o
 0002:0000e744       $unwind$?loc_shared_new@@YAPEAUst_plugin_shared_s@@PEAUst_plugin_info_s@@@Z 0000000180043744     biquad_lsh_2.o
 0002:0000e74c       $unwind$?loc_voice_new@@YAPEAUst_plugin_voice_s@@PEAUst_plugin_info_s@@@Z 000000018004374c     biquad_lsh_2.o
 0002:0000e758       $unwind$biquad_lsh_2_init  0000000180043758     biquad_lsh_2.o
 0002:0000e760       $unwind$?loc_prepare_block@@YAXPEAUst_plugin_voice_s@@IMMMM@Z 0000000180043760     biquad_lsh_3.o
 0002:0000e79c       $unwind$?loc_process_fx_replace@@YAXPEAUst_plugin_voice_s@@HPEBMPEAMI@Z 000000018004379c     biquad_lsh_3.o
 0002:0000e7a4       $chain$10$?loc_process_fx_replace@@YAXPEAUst_plugin_voice_s@@HPEBMPEAMI@Z 00000001800437a4     biquad_lsh_3.o
 0002:0000e7e0       $chain$11$?loc_process_fx_replace@@YAXPEAUst_plugin_voice_s@@HPEBMPEAMI@Z 00000001800437e0     biquad_lsh_3.o
 0002:0000e7f0       $unwind$?loc_shared_new@@YAPEAUst_plugin_shared_s@@PEAUst_plugin_info_s@@@Z 00000001800437f0     biquad_lsh_3.o
 0002:0000e7f8       $unwind$?loc_voice_new@@YAPEAUst_plugin_voice_s@@PEAUst_plugin_info_s@@@Z 00000001800437f8     biquad_lsh_3.o
 0002:0000e804       $unwind$biquad_lsh_3_init  0000000180043804     biquad_lsh_3.o
 0002:0000e80c       $unwind$?loc_prepare_block@@YAXPEAUst_plugin_voice_s@@IMMMM@Z 000000018004380c     biquad_lsh_4.o
 0002:0000e848       $unwind$?loc_process_fx_replace@@YAXPEAUst_plugin_voice_s@@HPEBMPEAMI@Z 0000000180043848     biquad_lsh_4.o
 0002:0000e850       $chain$12$?loc_process_fx_replace@@YAXPEAUst_plugin_voice_s@@HPEBMPEAMI@Z 0000000180043850     biquad_lsh_4.o
 0002:0000e894       $chain$13$?loc_process_fx_replace@@YAXPEAUst_plugin_voice_s@@HPEBMPEAMI@Z 0000000180043894     biquad_lsh_4.o
 0002:0000e8a4       $unwind$?loc_shared_new@@YAPEAUst_plugin_shared_s@@PEAUst_plugin_info_s@@@Z 00000001800438a4     biquad_lsh_4.o
 0002:0000e8ac       $unwind$?loc_voice_new@@YAPEAUst_plugin_voice_s@@PEAUst_plugin_info_s@@@Z 00000001800438ac     biquad_lsh_4.o
 0002:0000e8b8       $unwind$biquad_lsh_4_init  00000001800438b8     biquad_lsh_4.o
 0002:0000e8c0       $unwind$?loc_prepare_block@@YAXPEAUst_plugin_voice_s@@IMMMM@Z 00000001800438c0     biquad_hsh_1.o
 0002:0000e8f8       $unwind$?loc_process_fx_replace@@YAXPEAUst_plugin_voice_s@@HPEBMPEAMI@Z 00000001800438f8     biquad_hsh_1.o
 0002:0000e900       $chain$7$?loc_process_fx_replace@@YAXPEAUst_plugin_voice_s@@HPEBMPEAMI@Z 0000000180043900     biquad_hsh_1.o
 0002:0000e930       $chain$8$?loc_process_fx_replace@@YAXPEAUst_plugin_voice_s@@HPEBMPEAMI@Z 0000000180043930     biquad_hsh_1.o
 0002:0000e940       $unwind$?loc_shared_new@@YAPEAUst_plugin_shared_s@@PEAUst_plugin_info_s@@@Z 0000000180043940     biquad_hsh_1.o
 0002:0000e948       $unwind$?loc_voice_new@@YAPEAUst_plugin_voice_s@@PEAUst_plugin_info_s@@@Z 0000000180043948     biquad_hsh_1.o
 0002:0000e954       $unwind$biquad_hsh_1_init  0000000180043954     biquad_hsh_1.o
 0002:0000e95c       $unwind$?loc_prepare_block@@YAXPEAUst_plugin_voice_s@@IMMMM@Z 000000018004395c     biquad_hsh_2.o
 0002:0000e998       $unwind$?loc_process_fx_replace@@YAXPEAUst_plugin_voice_s@@HPEBMPEAMI@Z 0000000180043998     biquad_hsh_2.o
 0002:0000e9a0       $chain$10$?loc_process_fx_replace@@YAXPEAUst_plugin_voice_s@@HPEBMPEAMI@Z 00000001800439a0     biquad_hsh_2.o
 0002:0000e9dc       $chain$11$?loc_process_fx_replace@@YAXPEAUst_plugin_voice_s@@HPEBMPEAMI@Z 00000001800439dc     biquad_hsh_2.o
 0002:0000e9ec       $unwind$?loc_shared_new@@YAPEAUst_plugin_shared_s@@PEAUst_plugin_info_s@@@Z 00000001800439ec     biquad_hsh_2.o
 0002:0000e9f4       $unwind$?loc_voice_new@@YAPEAUst_plugin_voice_s@@PEAUst_plugin_info_s@@@Z 00000001800439f4     biquad_hsh_2.o
 0002:0000ea00       $unwind$biquad_hsh_2_init  0000000180043a00     biquad_hsh_2.o
 0002:0000ea08       $unwind$?loc_prepare_block@@YAXPEAUst_plugin_voice_s@@IMMMM@Z 0000000180043a08     biquad_hsh_3.o
 0002:0000ea44       $unwind$?loc_process_fx_replace@@YAXPEAUst_plugin_voice_s@@HPEBMPEAMI@Z 0000000180043a44     biquad_hsh_3.o
 0002:0000ea4c       $chain$10$?loc_process_fx_replace@@YAXPEAUst_plugin_voice_s@@HPEBMPEAMI@Z 0000000180043a4c     biquad_hsh_3.o
 0002:0000ea88       $chain$11$?loc_process_fx_replace@@YAXPEAUst_plugin_voice_s@@HPEBMPEAMI@Z 0000000180043a88     biquad_hsh_3.o
 0002:0000ea98       $unwind$?loc_shared_new@@YAPEAUst_plugin_shared_s@@PEAUst_plugin_info_s@@@Z 0000000180043a98     biquad_hsh_3.o
 0002:0000eaa0       $unwind$?loc_voice_new@@YAPEAUst_plugin_voice_s@@PEAUst_plugin_info_s@@@Z 0000000180043aa0     biquad_hsh_3.o
 0002:0000eaac       $unwind$biquad_hsh_3_init  0000000180043aac     biquad_hsh_3.o
 0002:0000eab4       $unwind$?loc_prepare_block@@YAXPEAUst_plugin_voice_s@@IMMMM@Z 0000000180043ab4     biquad_hsh_4.o
 0002:0000eaf0       $unwind$?loc_process_fx_replace@@YAXPEAUst_plugin_voice_s@@HPEBMPEAMI@Z 0000000180043af0     biquad_hsh_4.o
 0002:0000eaf8       $chain$12$?loc_process_fx_replace@@YAXPEAUst_plugin_voice_s@@HPEBMPEAMI@Z 0000000180043af8     biquad_hsh_4.o
 0002:0000eb3c       $chain$13$?loc_process_fx_replace@@YAXPEAUst_plugin_voice_s@@HPEBMPEAMI@Z 0000000180043b3c     biquad_hsh_4.o
 0002:0000eb4c       $unwind$?loc_shared_new@@YAPEAUst_plugin_shared_s@@PEAUst_plugin_info_s@@@Z 0000000180043b4c     biquad_hsh_4.o
 0002:0000eb54       $unwind$?loc_voice_new@@YAPEAUst_plugin_voice_s@@PEAUst_plugin_info_s@@@Z 0000000180043b54     biquad_hsh_4.o
 0002:0000eb60       $unwind$biquad_hsh_4_init  0000000180043b60     biquad_hsh_4.o
 0002:0000eb68       $unwind$loc_prepare_block  0000000180043b68     amp.o
 0002:0000eb80       $unwind$loc_process_fx_replace 0000000180043b80     amp.o
 0002:0000eb90       $chain$0$loc_process_fx_replace 0000000180043b90     amp.o
 0002:0000eba4       $chain$1$loc_process_fx_replace 0000000180043ba4     amp.o
 0002:0000ebb4       $unwind$loc_shared_new     0000000180043bb4     amp.o
 0002:0000ebbc       $unwind$loc_voice_new      0000000180043bbc     amp.o
 0002:0000ebc4       $unwind$amp_init           0000000180043bc4     amp.o
 0002:0000ebcc       $unwind$loc_prepare_block  0000000180043bcc     pan.o
 0002:0000ebe8       $unwind$loc_process_fx_replace 0000000180043be8     pan.o
 0002:0000ebf4       $chain$1$loc_process_fx_replace 0000000180043bf4     pan.o
 0002:0000ec0c       $chain$2$loc_process_fx_replace 0000000180043c0c     pan.o
 0002:0000ec1c       $unwind$loc_shared_new     0000000180043c1c     pan.o
 0002:0000ec24       $unwind$loc_voice_new      0000000180043c24     pan.o
 0002:0000ec30       $unwind$pan_init           0000000180043c30     pan.o
 0002:0000ec38       $unwind$loc_prepare_block  0000000180043c38     ws_smoothstep.o
 0002:0000ec60       $unwind$loc_process_fx_replace 0000000180043c60     ws_smoothstep.o
 0002:0000ec78       $chain$1$loc_process_fx_replace 0000000180043c78     ws_smoothstep.o
 0002:0000ec90       $chain$2$loc_process_fx_replace 0000000180043c90     ws_smoothstep.o
 0002:0000eca0       $chain$5$loc_process_fx_replace 0000000180043ca0     ws_smoothstep.o
 0002:0000ecbc       $chain$6$loc_process_fx_replace 0000000180043cbc     ws_smoothstep.o
 0002:0000eccc       $unwind$loc_shared_new     0000000180043ccc     ws_smoothstep.o
 0002:0000ecd4       $unwind$loc_voice_new      0000000180043cd4     ws_smoothstep.o
 0002:0000ece0       $unwind$ws_smoothstep_init 0000000180043ce0     ws_smoothstep.o
 0002:0000ece8       $unwind$?loc_note_on@@YAXPEAUst_plugin_voice_s@@HIIEMM@Z 0000000180043ce8     dly_1.o
 0002:0000ecf0       $chain$0$?loc_note_on@@YAXPEAUst_plugin_voice_s@@HIIEMM@Z 0000000180043cf0     dly_1.o
 0002:0000ed04       $chain$1$?loc_note_on@@YAXPEAUst_plugin_voice_s@@HIIEMM@Z 0000000180043d04     dly_1.o
 0002:0000ed14       $unwind$?loc_prepare_block@@YAXPEAUst_plugin_voice_s@@IMMMM@Z 0000000180043d14     dly_1.o
 0002:0000ed34       $unwind$?loc_process_fx_replace@@YAXPEAUst_plugin_voice_s@@HPEBMPEAMI@Z 0000000180043d34     dly_1.o
 0002:0000ed44       $chain$1$?loc_process_fx_replace@@YAXPEAUst_plugin_voice_s@@HPEBMPEAMI@Z 0000000180043d44     dly_1.o
 0002:0000ed5c       $chain$2$?loc_process_fx_replace@@YAXPEAUst_plugin_voice_s@@HPEBMPEAMI@Z 0000000180043d5c     dly_1.o
 0002:0000ed6c       $chain$4$?loc_process_fx_replace@@YAXPEAUst_plugin_voice_s@@HPEBMPEAMI@Z 0000000180043d6c     dly_1.o
 0002:0000ed84       $chain$5$?loc_process_fx_replace@@YAXPEAUst_plugin_voice_s@@HPEBMPEAMI@Z 0000000180043d84     dly_1.o
 0002:0000ed94       $unwind$?loc_shared_new@@YAPEAUst_plugin_shared_s@@PEAUst_plugin_info_s@@@Z 0000000180043d94     dly_1.o
 0002:0000ed9c       $unwind$?loc_voice_new@@YAPEAUst_plugin_voice_s@@PEAUst_plugin_info_s@@@Z 0000000180043d9c     dly_1.o
 0002:0000eda8       $unwind$dly_1_init         0000000180043da8     dly_1.o
 0002:0000edb0       $unwind$?loc_note_on@@YAXPEAUst_plugin_voice_s@@HIIEMM@Z 0000000180043db0     dly_2.o
 0002:0000edb8       $chain$0$?loc_note_on@@YAXPEAUst_plugin_voice_s@@HIIEMM@Z 0000000180043db8     dly_2.o
 0002:0000edcc       $chain$1$?loc_note_on@@YAXPEAUst_plugin_voice_s@@HIIEMM@Z 0000000180043dcc     dly_2.o
 0002:0000eddc       $unwind$?loc_prepare_block@@YAXPEAUst_plugin_voice_s@@IMMMM@Z 0000000180043ddc     dly_2.o
 0002:0000ee18       $unwind$?loc_process_fx_replace@@YAXPEAUst_plugin_voice_s@@HPEBMPEAMI@Z 0000000180043e18     dly_2.o
 0002:0000ee24       $chain$2$?loc_process_fx_replace@@YAXPEAUst_plugin_voice_s@@HPEBMPEAMI@Z 0000000180043e24     dly_2.o
 0002:0000ee40       $chain$3$?loc_process_fx_replace@@YAXPEAUst_plugin_voice_s@@HPEBMPEAMI@Z 0000000180043e40     dly_2.o
 0002:0000ee50       $unwind$?loc_shared_new@@YAPEAUst_plugin_shared_s@@PEAUst_plugin_info_s@@@Z 0000000180043e50     dly_2.o
 0002:0000ee58       $unwind$?loc_voice_new@@YAPEAUst_plugin_voice_s@@PEAUst_plugin_info_s@@@Z 0000000180043e58     dly_2.o
 0002:0000ee64       $unwind$dly_2_init         0000000180043e64     dly_2.o
 0002:0000ee6c       $unwind$?calcFltCoeff@dly_flt_2_voice_s@@QEAAXAEAUStBiquadCoeff@@MMM@Z 0000000180043e6c     dly_flt_2.o
 0002:0000ee90       $unwind$?loc_note_on@@YAXPEAUst_plugin_voice_s@@HIIEMM@Z 0000000180043e90     dly_flt_2.o
 0002:0000ee98       $chain$0$?loc_note_on@@YAXPEAUst_plugin_voice_s@@HIIEMM@Z 0000000180043e98     dly_flt_2.o
 0002:0000eeac       $chain$1$?loc_note_on@@YAXPEAUst_plugin_voice_s@@HIIEMM@Z 0000000180043eac     dly_flt_2.o
 0002:0000eebc       $unwind$?loc_prepare_block@@YAXPEAUst_plugin_voice_s@@IMMMM@Z 0000000180043ebc     dly_flt_2.o
 0002:0000eee4       $chain$1$?loc_prepare_block@@YAXPEAUst_plugin_voice_s@@IMMMM@Z 0000000180043ee4     dly_flt_2.o
 0002:0000eefc       $unwind$?loc_process_fx_replace@@YAXPEAUst_plugin_voice_s@@HPEBMPEAMI@Z 0000000180043efc     dly_flt_2.o
 0002:0000ef10       $chain$9$?loc_process_fx_replace@@YAXPEAUst_plugin_voice_s@@HPEBMPEAMI@Z 0000000180043f10     dly_flt_2.o
 0002:0000ef48       $chain$10$?loc_process_fx_replace@@YAXPEAUst_plugin_voice_s@@HPEBMPEAMI@Z 0000000180043f48     dly_flt_2.o
 0002:0000ef58       $unwind$?loc_shared_new@@YAPEAUst_plugin_shared_s@@PEAUst_plugin_info_s@@@Z 0000000180043f58     dly_flt_2.o
 0002:0000ef60       $unwind$?loc_voice_new@@YAPEAUst_plugin_voice_s@@PEAUst_plugin_info_s@@@Z 0000000180043f60     dly_flt_2.o
 0002:0000ef6c       $unwind$dly_flt_2_init     0000000180043f6c     dly_flt_2.o
 0002:0000ef74       $unwind$?loc_prepare_block@@YAXPEAUst_plugin_voice_s@@IMMMM@Z 0000000180043f74     bitflipper.o
 0002:0000efa4       $unwind$?loc_process_fx_replace@@YAXPEAUst_plugin_voice_s@@HPEBMPEAMI@Z 0000000180043fa4     bitflipper.o
 0002:0000efb0       $chain$3$?loc_process_fx_replace@@YAXPEAUst_plugin_voice_s@@HPEBMPEAMI@Z 0000000180043fb0     bitflipper.o
 0002:0000efd0       $chain$7$?loc_process_fx_replace@@YAXPEAUst_plugin_voice_s@@HPEBMPEAMI@Z 0000000180043fd0     bitflipper.o
 0002:0000eff0       $chain$8$?loc_process_fx_replace@@YAXPEAUst_plugin_voice_s@@HPEBMPEAMI@Z 0000000180043ff0     bitflipper.o
 0002:0000f000       $chain$9$?loc_process_fx_replace@@YAXPEAUst_plugin_voice_s@@HPEBMPEAMI@Z 0000000180044000     bitflipper.o
 0002:0000f010       $unwind$?loc_shared_new@@YAPEAUst_plugin_shared_s@@PEAUst_plugin_info_s@@@Z 0000000180044010     bitflipper.o
 0002:0000f018       $unwind$?loc_voice_new@@YAPEAUst_plugin_voice_s@@PEAUst_plugin_info_s@@@Z 0000000180044018     bitflipper.o
 0002:0000f024       $unwind$bitflipper_init    0000000180044024     bitflipper.o
 0002:0000f02c       $unwind$?dllmain_crt_process_attach@@YAHQEAUHINSTANCE__@@QEAX@Z 000000018004402c     LIBCMT:dll_dllmain.obj
 0002:0000f068       $unwind$?fin$0@?0??dllmain_crt_process_attach@@YAHQEAUHINSTANCE__@@QEAX@Z@4HA 0000000180044068     LIBCMT:dll_dllmain.obj
 0002:0000f068       $unwind$?fin$0@?0??dllmain_crt_process_detach@@YAH_N@Z@4HA 0000000180044068     LIBCMT:dll_dllmain.obj
 0002:0000f068       $unwind$?fin$1@?0??dllmain_crt_process_detach@@YAH_N@Z@4HA 0000000180044068     LIBCMT:dll_dllmain.obj
 0002:0000f068       $unwind$_IsNonwritableInCurrentImage$filt$0 0000000180044068     LIBCMT:pesect.obj
 0002:0000f068       $unwind$_query_new_handler$fin$0 0000000180044068     libucrt:new_handler.obj
 0002:0000f068       $unwind$?fin$0@?0???$?RV<lambda_0ae27a3a962d80f24befdcbee591983d>@@AEAV<lambda_8d0ee55de4b1038c4002e0adecdf1839>@@V<lambda_dc504788e8f1664fe9b84e20bfb512f2>@@@?$__crt_seh_guarded_call@X@@QEAAX$$QEAV<lambda_0ae27a3a962d80f24befdcbee591983d>@@AEAV<lambda_8d0ee55de4b1038c4002e0adecdf1839>@@$$QEAV<lambda_dc504788e8f1664fe9b84e20bfb512f2>@@@Z@4HA 0000000180044068     libucrt:per_thread_data.obj
 0002:0000f068       $unwind$?fin$0@?0???$?RV<lambda_2d41944a1d46af3157314b8a01080d33>@@AEAV<lambda_8f455de75cd7d7f24b4096f044d8b9e6>@@V<lambda_aa500f224e6afead328df44964fe2772>@@@?$__crt_seh_guarded_call@X@@QEAAX$$QEAV<lambda_2d41944a1d46af3157314b8a01080d33>@@AEAV<lambda_8f455de75cd7d7f24b4096f044d8b9e6>@@$$QEAV<lambda_aa500f224e6afead328df44964fe2772>@@@Z@4HA 0000000180044068     libucrt:per_thread_data.obj
 0002:0000f068       $unwind$?fin$0@?0???$?RV<lambda_aa87e3671a710a21b5dc78c0bdf72e11>@@AEAV<lambda_92619d2358a28f41a33ba319515a20b9>@@V<lambda_6992ecaafeb10aed2b74cb1fae11a551>@@@?$__crt_seh_guarded_call@X@@QEAAX$$QEAV<lambda_aa87e3671a710a21b5dc78c0bdf72e11>@@AEAV<lambda_92619d2358a28f41a33ba319515a20b9>@@$$QEAV<lambda_6992ecaafeb10aed2b74cb1fae11a551>@@@Z@4HA 0000000180044068     libucrt:per_thread_data.obj
 0002:0000f068       $unwind$?fin$0@?0???$?RV<lambda_f2e299630e499de9f9a165e60fcd3db5>@@AEAV<lambda_2ae9d31cdba2644fcbeaf08da7c24588>@@V<lambda_40d01ff24d0e7b3814fdbdcee8eab3c7>@@@?$__crt_seh_guarded_call@X@@QEAAX$$QEAV<lambda_f2e299630e499de9f9a165e60fcd3db5>@@AEAV<lambda_2ae9d31cdba2644fcbeaf08da7c24588>@@$$QEAV<lambda_40d01ff24d0e7b3814fdbdcee8eab3c7>@@@Z@4HA 0000000180044068     libucrt:per_thread_data.obj
 0002:0000f068       $unwind$__acrt_update_thread_locale_data$fin$0 0000000180044068     libucrt:locale_refcounting.obj
 0002:0000f068       $unwind$?fin$0@?0???$?RV<lambda_410d79af7f07d98d83a3f525b3859a53>@@AEAV<lambda_3e16ef9562a7dcce91392c22ab16ea36>@@V<lambda_38119f0e861e05405d8a144b9b982f0a>@@@?$__crt_seh_guarded_call@X@@QEAAX$$QEAV<lambda_410d79af7f07d98d83a3f525b3859a53>@@AEAV<lambda_3e16ef9562a7dcce91392c22ab16ea36>@@$$QEAV<lambda_38119f0e861e05405d8a144b9b982f0a>@@@Z@4HA 0000000180044068     libucrt:wsetlocale.obj
 0002:0000f068       $unwind$?fin$0@?0???$?RV<lambda_751a882b2c74d4b022dec766aa51a29a>@@AEAV<lambda_628dfdc04ba53c8bfc02c9951375f3f5>@@V<lambda_f6c7be5f7998530c34de24c7437d6b54>@@@?$__crt_seh_guarded_call@H@@QEAAH$$QEAV<lambda_751a882b2c74d4b022dec766aa51a29a>@@AEAV<lambda_628dfdc04ba53c8bfc02c9951375f3f5>@@$$QEAV<lambda_f6c7be5f7998530c34de24c7437d6b54>@@@Z@4HA 0000000180044068     libucrt:close.obj
 0002:0000f068       $unwind$?fin$0@?0???$?RV<lambda_a37b2b86f63e897a80ea819b0eb08c01>@@AEAV<lambda_38ce7e780aa69e748d6df282ebc68efe>@@V<lambda_99fb1378e971ab6e7edea83e3a7a83a2>@@@?$__crt_seh_guarded_call@H@@QEAAH$$QEAV<lambda_a37b2b86f63e897a80ea819b0eb08c01>@@AEAV<lambda_38ce7e780aa69e748d6df282ebc68efe>@@$$QEAV<lambda_99fb1378e971ab6e7edea83e3a7a83a2>@@@Z@4HA 0000000180044068     libucrt:commit.obj
 0002:0000f068       $unwind$__acrt_initialize_lowio$fin$0 0000000180044068     libucrt:ioinit.obj
 0002:0000f068       $unwind$__acrt_lowio_ensure_fh_exists$fin$0 0000000180044068     libucrt:osfinfo.obj
 0002:0000f068       $unwind$_write$fin$0       0000000180044068     libucrt:write.obj
 0002:0000f068       $unwind$?fin$0@?0???$?RV<lambda_efdfa57d1f175319df784efa44bb7b81>@@AEAV<lambda_5f0a4c1567f8adc6734073e5d1e1b35c>@@V<lambda_2e8a7d3640ea6ccb4c2413664c2db6fd>@@@?$__crt_seh_guarded_call@X@@QEAAX$$QEAV<lambda_efdfa57d1f175319df784efa44bb7b81>@@AEAV<lambda_5f0a4c1567f8adc6734073e5d1e1b35c>@@$$QEAV<lambda_2e8a7d3640ea6ccb4c2413664c2db6fd>@@@Z@4HA 0000000180044068     libucrt:mbctype.obj
 0002:0000f068       $unwind$?fin$0@?0??update_thread_multibyte_data_internal@@YAPEAU__crt_multibyte_data@@QEAU__acrt_ptd@@QEAPEAU1@@Z@4HA 0000000180044068     libucrt:mbctype.obj
 0002:0000f068       $unwind$?fin$0@?0???$?RV<lambda_450d765d439847d4c735a33c368b5fc0>@@AEAV<lambda_44731a7d0e6d81c3e6aa82d741081786>@@V<lambda_601a2a7da3b7a96e9554ac7215c4b07c>@@@?$__crt_seh_guarded_call@P6AXH@Z@@QEAAP6AXH@Z$$QEAV<lambda_450d765d439847d4c735a33c368b5fc0>@@AEAV<lambda_44731a7d0e6d81c3e6aa82d741081786>@@$$QEAV<lambda_601a2a7da3b7a96e9554ac7215c4b07c>@@@Z@4HA 0000000180044068     libucrt:signal.obj
 0002:0000f068       $unwind$raise$fin$0        0000000180044068     libucrt:signal.obj
 0002:0000f068       $unwind$?filt$0@?0???R<lambda_6e4b09c48022b2350581041d5f6b0c4c>@@QEBA@XZ@4HA 0000000180044068     libucrt:exit.obj
 0002:0000f068       $unwind$?fin$0@?0???$?RV<lambda_d80eeec6fff315bfe5c115232f3240e3>@@AEAV<lambda_6e4b09c48022b2350581041d5f6b0c4c>@@V<lambda_2358e3775559c9db80273638284d5e45>@@@?$__crt_seh_guarded_call@X@@QEAAX$$QEAV<lambda_d80eeec6fff315bfe5c115232f3240e3>@@AEAV<lambda_6e4b09c48022b2350581041d5f6b0c4c>@@$$QEAV<lambda_2358e3775559c9db80273638284d5e45>@@@Z@4HA 0000000180044068     libucrt:exit.obj
 0002:0000f068       $unwind$?fin$0@?0???$?RV<lambda_7777bce6b2f8c936911f934f8298dc43>@@AEAV<lambda_f03950bc5685219e0bcd2087efbe011e>@@V<lambda_3883c3dff614d5e0c5f61bb1ac94921c>@@@?$__crt_seh_guarded_call@H@@QEAAH$$QEAV<lambda_7777bce6b2f8c936911f934f8298dc43>@@AEAV<lambda_f03950bc5685219e0bcd2087efbe011e>@@$$QEAV<lambda_3883c3dff614d5e0c5f61bb1ac94921c>@@@Z@4HA 0000000180044068     libucrt:onexit.obj
 0002:0000f068       $unwind$_fcloseall$fin$0   0000000180044068     libucrt:closeall.obj
 0002:0000f068       $unwind$fclose$fin$0       0000000180044068     libucrt:fclose.obj
 0002:0000f068       $unwind$?fin$0@?0???$?RV<lambda_842d9ff0dc9ef11c61343bbaebe7f885>@@AEAV<lambda_c5860995281e5c4ce005b3de8f5874ee>@@V<lambda_d90129c13df834fdcbf8d2b88dafcf2d>@@@?$__crt_seh_guarded_call@X@@QEAAX$$QEAV<lambda_842d9ff0dc9ef11c61343bbaebe7f885>@@AEAV<lambda_c5860995281e5c4ce005b3de8f5874ee>@@$$QEAV<lambda_d90129c13df834fdcbf8d2b88dafcf2d>@@@Z@4HA 0000000180044068     libucrt:fflush.obj
 0002:0000f068       $unwind$?fin$0@?0???$?RV<lambda_886d6c58226a84441f68b9f2b8217b83>@@AEAV<lambda_ab61a845afdef5b7c387490eaf3616ee>@@V<lambda_f7f22ab5edc0698d5f6905b0d3f44752>@@@?$__crt_seh_guarded_call@X@@QEAAX$$QEAV<lambda_886d6c58226a84441f68b9f2b8217b83>@@AEAV<lambda_ab61a845afdef5b7c387490eaf3616ee>@@$$QEAV<lambda_f7f22ab5edc0698d5f6905b0d3f44752>@@@Z@4HA 0000000180044068     libucrt:fflush.obj
 0002:0000f068       $unwind$_ctrlfp$filt$0     0000000180044068     libucrt:fpctrl.obj
 0002:0000f070       $unwind$?dllmain_crt_process_detach@@YAH_N@Z 0000000180044070     LIBCMT:dll_dllmain.obj
 0002:0000f0c4       $unwind$__scrt_initialize_default_local_stdio_options 00000001800440c4     LIBCMT:default_local_stdio_options.obj
 0002:0000f0c4       $unwind$?dllmain_crt_dispatch@@YAHQEAUHINSTANCE__@@KQEAX@Z 00000001800440c4     LIBCMT:dll_dllmain.obj
 0002:0000f0c4       $unwind$__report_rangecheckfailure 00000001800440c4     LIBCMT:gs_report.obj
 0002:0000f0c4       $unwind$__GSHandlerCheck   00000001800440c4     LIBCMT:gshandler.obj
 0002:0000f0c4       $unwind$__scrt_acquire_startup_lock 00000001800440c4     LIBCMT:utility.obj
 0002:0000f0c4       $unwind$__scrt_dllmain_after_initialize_c 00000001800440c4     LIBCMT:utility.obj
 0002:0000f0c4       $unwind$__scrt_dllmain_before_initialize_c 00000001800440c4     LIBCMT:utility.obj
 0002:0000f0c4       $unwind$__scrt_dllmain_crt_thread_attach 00000001800440c4     LIBCMT:utility.obj
 0002:0000f0c4       $unwind$__scrt_dllmain_crt_thread_detach 00000001800440c4     LIBCMT:utility.obj
 0002:0000f0c4       $unwind$__scrt_dllmain_uninitialize_c 00000001800440c4     LIBCMT:utility.obj
 0002:0000f0c4       $unwind$__scrt_dllmain_uninitialize_critical 00000001800440c4     LIBCMT:utility.obj
 0002:0000f0c4       $unwind$__vcrt_initialize  00000001800440c4     libvcruntime:initialization.obj
 0002:0000f0c4       $unwind$__vcrt_thread_attach 00000001800440c4     libvcruntime:initialization.obj
 0002:0000f0c4       $unwind$__vcrt_thread_detach 00000001800440c4     libvcruntime:initialization.obj
 0002:0000f0c4       $unwind$__vcrt_uninitialize 00000001800440c4     libvcruntime:initialization.obj
 0002:0000f0c4       $unwind$__vcrt_uninitialize_critical 00000001800440c4     libvcruntime:initialization.obj
 0002:0000f0c4       $unwind$__vcrt_initialize_locks 00000001800440c4     libvcruntime:locks.obj
 0002:0000f0c4       $unwind$__vcrt_freefls     00000001800440c4     libvcruntime:per_thread_data.obj
 0002:0000f0c4       $unwind$__vcrt_getptd      00000001800440c4     libvcruntime:per_thread_data.obj
 0002:0000f0c4       $unwind$__vcrt_initialize_ptd 00000001800440c4     libvcruntime:per_thread_data.obj
 0002:0000f0c4       $unwind$__vcrt_uninitialize_ptd 00000001800440c4     libvcruntime:per_thread_data.obj
 0002:0000f0c4       $unwind$__dcrt_terminate_console_output 00000001800440c4     libucrt:initcon.obj
 0002:0000f0c4       $unwind$??$uninitialize_environment_internal@D@@YAXAEAPEAPEAD@Z 00000001800440c4     libucrt:environment_initialization.obj
 0002:0000f0c4       $unwind$??$uninitialize_environment_internal@_W@@YAXAEAPEAPEA_W@Z 00000001800440c4     libucrt:environment_initialization.obj
 0002:0000f0c4       $unwind$__dcrt_uninitialize_environments_nolock 00000001800440c4     libucrt:environment_initialization.obj
 0002:0000f0c4       $unwind$__acrt_initialize_heap 00000001800440c4     libucrt:heap_handle.obj
 0002:0000f0c4       $unwind$_msize_base        00000001800440c4     libucrt:msize.obj
 0002:0000f0c4       $unwind$?initialize_multibyte@@YAHXZ 00000001800440c4     libucrt:multibyte_initializer.obj
 0002:0000f0c4       $unwind$__acrt_thread_attach 00000001800440c4     libucrt:initialization.obj
 0002:0000f0c4       $unwind$__acrt_thread_detach 00000001800440c4     libucrt:initialization.obj
 0002:0000f0c4       $unwind$__acrt_uninitialize 00000001800440c4     libucrt:initialization.obj
 0002:0000f0c4       $unwind$__acrt_uninitialize_critical 00000001800440c4     libucrt:initialization.obj
 0002:0000f0c4       $unwind$initialize_c       00000001800440c4     libucrt:initialization.obj
 0002:0000f0c4       $unwind$uninitialize_allocated_io_buffers 00000001800440c4     libucrt:initialization.obj
 0002:0000f0c4       $unwind$uninitialize_environment 00000001800440c4     libucrt:initialization.obj
 0002:0000f0c4       $unwind$__acrt_initialize_ptd 00000001800440c4     libucrt:per_thread_data.obj
 0002:0000f0c4       $unwind$__acrt_uninitialize_ptd 00000001800440c4     libucrt:per_thread_data.obj
 0002:0000f0c4       $unwind$__pctype_func      00000001800440c4     libucrt:ctype.obj
 0002:0000f0c4       $unwind$__acrt_DownlevelLocaleNameToLCID 00000001800440c4     libucrt:lcidtoname_downlevel.obj
 0002:0000f0c4       $unwind$__acrt_release_locale_ref 00000001800440c4     libucrt:locale_refcounting.obj
 0002:0000f0c4       $unwind$_isatty            00000001800440c4     libucrt:isatty.obj
 0002:0000f0c4       $unwind$_get_osfhandle     00000001800440c4     libucrt:osfinfo.obj
 0002:0000f0c4       $unwind$__acrt_initialize_multibyte 00000001800440c4     libucrt:mbctype.obj
 0002:0000f0c4       $unwind$__acrt_update_thread_multibyte_data 00000001800440c4     libucrt:mbctype.obj
 0002:0000f0c4       $unwind$__doserrno         00000001800440c4     libucrt:errno.obj
 0002:0000f0c4       $unwind$_errno             00000001800440c4     libucrt:errno.obj
 0002:0000f0c4       $unwind$_invoke_watson     00000001800440c4     libucrt:invalid_parameter.obj
 0002:0000f0c4       $unwind$abort              00000001800440c4     libucrt:abort.obj
 0002:0000f0c4       $unwind$__acrt_initialize_command_line 00000001800440c4     libucrt:argv_data.obj
 0002:0000f0c4       $unwind$_fileno            00000001800440c4     libucrt:fileno.obj
 0002:0000f0c4       $unwind$_statfp            00000001800440c4     libucrt:fpctrl.obj
 0002:0000f0c4       $unwind$_set_errno_from_matherr 00000001800440c4     libucrt:fpexcept.obj
 0002:0000f0cc       $unwind$?dllmain_dispatch@@YAHQEAUHINSTANCE__@@KQEAX@Z 00000001800440cc     LIBCMT:dll_dllmain.obj
 0002:0000f0f4       $unwind$?filt$0@?0??dllmain_dispatch@@YAHQEAUHINSTANCE__@@KQEAX@Z@4HA 00000001800440f4     LIBCMT:dll_dllmain.obj
 0002:0000f0fc       $unwind$_DllMainCRTStartup 00000001800440fc     LIBCMT:dll_dllmain.obj
 0002:0000f0fc       $unwind$__vcrt_getptd_noexit 00000001800440fc     libvcruntime:per_thread_data.obj
 0002:0000f0fc       $unwind$__vcrt_InitializeCriticalSectionEx 00000001800440fc     libvcruntime:winapi_downlevel.obj
 0002:0000f0fc       $unwind$__acrt_execute_initializers 00000001800440fc     libucrt:shared_initialization.obj
 0002:0000f0fc       $unwind$__acrt_InitializeCriticalSectionEx 00000001800440fc     libucrt:winapi_thunks.obj
 0002:0000f0fc       $unwind$?free_crt_array_internal@@YAXQEAPEBX_K@Z 00000001800440fc     libucrt:inittime.obj
 0002:0000f0fc       $unwind$??$common_lseek_nolock@_J@@YA_JH_JH@Z 00000001800440fc     libucrt:lseek.obj
 0002:0000f0fc       $unwind$__acrt_stdio_flush_nolock 00000001800440fc     libucrt:fflush.obj
 0002:0000f0fc       $unwind$_exception_enabled 00000001800440fc     libucrt:libm_error.obj
 0002:0000f10c       $unwind$__security_init_cookie 000000018004410c     LIBCMT:gs_support.obj
 0002:0000f118       $unwind$__scrt_is_nonwritable_in_current_image 0000000180044118     LIBCMT:utility.obj
 0002:0000f138       $unwind$__scrt_is_nonwritable_in_current_image$filt$0 0000000180044138     LIBCMT:utility.obj
 0002:0000f140       $unwind$__raise_securityfailure 0000000180044140     LIBCMT:gs_report.obj
 0002:0000f140       $unwind$__scrt_initialize_crt 0000000180044140     LIBCMT:utility.obj
 0002:0000f140       $unwind$__scrt_initialize_onexit_tables 0000000180044140     LIBCMT:utility.obj
 0002:0000f140       $unwind$__scrt_release_startup_lock 0000000180044140     LIBCMT:utility.obj
 0002:0000f140       $unwind$__scrt_uninitialize_crt 0000000180044140     LIBCMT:utility.obj
 0002:0000f140       $unwind$__vcrt_uninitialize_locks 0000000180044140     libvcruntime:locks.obj
 0002:0000f140       $unwind$__vcrt_freeptd     0000000180044140     libvcruntime:per_thread_data.obj
 0002:0000f140       $unwind$__std_type_info_destroy_list 0000000180044140     libvcruntime:std_type_info.obj
 0002:0000f140       $unwind$__vcrt_FlsAlloc    0000000180044140     libvcruntime:winapi_downlevel.obj
 0002:0000f140       $unwind$__vcrt_FlsFree     0000000180044140     libvcruntime:winapi_downlevel.obj
 0002:0000f140       $unwind$__vcrt_FlsGetValue 0000000180044140     libvcruntime:winapi_downlevel.obj
 0002:0000f140       $unwind$_calloc_base       0000000180044140     libucrt:calloc_base.obj
 0002:0000f140       $unwind$_malloc_base       0000000180044140     libucrt:malloc_base.obj
 0002:0000f140       $unwind$_callnewh          0000000180044140     libucrt:new_handler.obj
 0002:0000f140       $unwind$initialize_pointers 0000000180044140     libucrt:initialization.obj
 0002:0000f140       $unwind$uninitialize_allocated_memory 0000000180044140     libucrt:initialization.obj
 0002:0000f140       $unwind$__acrt_initialize_locks 0000000180044140     libucrt:locks.obj
 0002:0000f140       $unwind$__acrt_uninitialize_locks 0000000180044140     libucrt:locks.obj
 0002:0000f140       $unwind$__acrt_freeptd     0000000180044140     libucrt:per_thread_data.obj
 0002:0000f140       $unwind$__acrt_getptd_head 0000000180044140     libucrt:per_thread_data.obj
 0002:0000f140       $unwind$__acrt_get_process_end_policy 0000000180044140     libucrt:win_policies.obj
 0002:0000f140       $unwind$__acrt_AppPolicyGetProcessTerminationMethodInternal 0000000180044140     libucrt:winapi_thunks.obj
 0002:0000f140       $unwind$__acrt_FlsAlloc    0000000180044140     libucrt:winapi_thunks.obj
 0002:0000f140       $unwind$__acrt_FlsFree     0000000180044140     libucrt:winapi_thunks.obj
 0002:0000f140       $unwind$__acrt_FlsGetValue 0000000180044140     libucrt:winapi_thunks.obj
 0002:0000f140       $unwind$__acrt_uninitialize_winapi_thunks 0000000180044140     libucrt:winapi_thunks.obj
 0002:0000f140       $unwind$__acrt_update_locale_info 0000000180044140     libucrt:locale_update.obj
 0002:0000f140       $unwind$__acrt_update_multibyte_info 0000000180044140     libucrt:locale_update.obj
 0002:0000f140       $unwind$__acrt_allocate_buffer_for_argv 0000000180044140     libucrt:argv_parsing.obj
 0002:0000f140       $unwind$?exit_or_terminate_process@@YAXI@Z 0000000180044140     libucrt:exit.obj
 0002:0000f140       $unwind$?try_cor_exit_process@@YAXI@Z 0000000180044140     libucrt:exit.obj
 0002:0000f140       $unwind$__acrt_uninitialize_stdio 0000000180044140     libucrt:_file.obj
 0002:0000f140       $unwind$__acrt_stdio_free_buffer_nolock 0000000180044140     libucrt:_freebuf.obj
 0002:0000f140       $unwind$_fflush_nolock     0000000180044140     libucrt:fflush.obj
 0002:0000f140       $unwind$strcpy_s           0000000180044140     libucrt:strcpy_s.obj
 0002:0000f140       $unwind$_clrfp             0000000180044140     libucrt:fpctrl.obj
 0002:0000f140       $unwind$_set_statfp        0000000180044140     libucrt:fpctrl.obj
 0002:0000f148       $unwind$__scrt_dllmain_exception_filter 0000000180044148     LIBCMT:utility.obj
 0002:0000f148       $unwind$_recalloc_base     0000000180044148     libucrt:recalloc.obj
 0002:0000f148       $unwind$__acrt_free_locale 0000000180044148     libucrt:locale_refcounting.obj
 0002:0000f148       $unwind$__acrt_lowio_create_handle_array 0000000180044148     libucrt:osfinfo.obj
 0002:0000f148       $unwind$?setSBCS@@YAXPEAU__crt_multibyte_data@@@Z 0000000180044148     libucrt:mbctype.obj
 0002:0000f148       $unwind$_seh_filter_exe    0000000180044148     libucrt:exception_filter.obj
 0002:0000f148       $unwind$_initterm          0000000180044148     libucrt:initterm.obj
 0002:0000f15c       $unwind$__scrt_fastfail    000000018004415c     LIBCMT:utility_desktop.obj
 0002:0000f16c       $unwind$_RTC_Initialize    000000018004416c     LIBCMT:initsect.obj
 0002:0000f16c       $unwind$_RTC_Terminate     000000018004416c     LIBCMT:initsect.obj
 0002:0000f16c       $unwind$__vcrt_FlsSetValue 000000018004416c     libvcruntime:winapi_downlevel.obj
 0002:0000f16c       $unwind$??$common_initialize_environment_nolock@D@@YAHXZ 000000018004416c     libucrt:environment_initialization.obj
 0002:0000f16c       $unwind$_realloc_base      000000018004416c     libucrt:realloc_base.obj
 0002:0000f16c       $unwind$?replace_current_thread_locale_nolock@@YAXQEAU__acrt_ptd@@QEAU__crt_locale_data@@@Z 000000018004416c     libucrt:per_thread_data.obj
 0002:0000f16c       $unwind$__acrt_getptd      000000018004416c     libucrt:per_thread_data.obj
 0002:0000f16c       $unwind$__acrt_getptd_noexit 000000018004416c     libucrt:per_thread_data.obj
 0002:0000f16c       $unwind$__acrt_execute_uninitializers 000000018004416c     libucrt:shared_initialization.obj
 0002:0000f16c       $unwind$__acrt_FlsSetValue 000000018004416c     libucrt:winapi_thunks.obj
 0002:0000f16c       $unwind$__acrt_LocaleNameToLCID 000000018004416c     libucrt:winapi_thunks.obj
 0002:0000f16c       $unwind$_updatetlocinfoEx_nolock 000000018004416c     libucrt:locale_refcounting.obj
 0002:0000f16c       $unwind$_close_nolock      000000018004416c     libucrt:close.obj
 0002:0000f16c       $unwind$__acrt_uninitialize_lowio 000000018004416c     libucrt:ioinit.obj
 0002:0000f16c       $unwind$__acrt_errno_map_os_error 000000018004416c     libucrt:errno.obj
 0002:0000f16c       $unwind$_initterm_e        000000018004416c     libucrt:initterm.obj
 0002:0000f16c       $unwind$_fclose_nolock     000000018004416c     libucrt:fclose.obj
 0002:0000f16c       $unwind$??0_LocaleUpdate@@QEAA@QEAU__crt_locale_pointers@@@Z 000000018004416c     libucrt:output.obj
 0002:0000f16c       $unwind$strncpy_s          000000018004416c     libucrt:strncpy_s.obj
 0002:0000f178       $unwind$__isa_available_init 0000000180044178     LIBCMT:cpu_disp.obj
 0002:0000f188       $xdatasym                  0000000180044188     LIBCMT:guard_dispatch.obj
 0002:0000f190       $xdatasym                  0000000180044190     libvcruntime:memset.obj
 0002:0000f1a0       $unwind$__C_specific_handler 00000001800441a0     libvcruntime:riscchandler.obj
 0002:0000f1bc       $unwind$__DestructExceptionObject 00000001800441bc     libvcruntime:ehhelpers.obj
 0002:0000f1dc       $unwind$__DestructExceptionObject$filt$0 00000001800441dc     libvcruntime:ehhelpers.obj
 0002:0000f1e8       $xdatasym                  00000001800441e8     libvcruntime:notify.obj
 0002:0000f1f8       $xdatasym                  00000001800441f8     libvcruntime:memcpy.obj
 0002:0000f208       $unwind$?try_get_function@@YAPEAXW4function_id@?A0x5a6460af@@QEBDQEBW4module_id@2@2@Z 0000000180044208     libvcruntime:winapi_downlevel.obj
 0002:0000f208       $unwind$?try_get_function@@YAPEAXW4function_id@?A0x391cf84c@@QEBDQEBW4module_id@2@2@Z 0000000180044208     libucrt:winapi_thunks.obj
 0002:0000f208       $unwind$??R<lambda_f03950bc5685219e0bcd2087efbe011e>@@QEBAHXZ 0000000180044208     libucrt:onexit.obj
 0002:0000f228       $xdatasym                  0000000180044228     libvcruntime:handlers.obj
 0002:0000f248       $xdatasym                  0000000180044248     libucrt:sinf.obj
 0002:0000f250       $xdatasym                  0000000180044250     libucrt:powf.obj
 0002:0000f260       $unwind$tanhf              0000000180044260     libucrt:tanhf.obj
 0002:0000f280       $xdatasym                  0000000180044280     libucrt:exp.obj
 0002:0000f288       $xdatasym                  0000000180044288     libucrt:sin.obj
 0002:0000f290       $xdatasym                  0000000180044290     libucrt:cosf.obj
 0002:0000f298       $unwind$sinh               0000000180044298     libucrt:sinh.obj
 0002:0000f2ac       $unwind$splitexp           00000001800442ac     libucrt:sinh.obj
 0002:0000f2c0       $xdatasym                  00000001800442c0     libucrt:pow.obj
 0002:0000f2d0       $unwind$sqrt               00000001800442d0     libucrt:sqrt.obj
 0002:0000f2d8       $xdatasym                  00000001800442d8     libucrt:tan.obj
 0002:0000f2f4       $unwind$?common_exit@@YAXHW4_crt_exit_cleanup_mode@@W4_crt_exit_return_mode@@@Z 00000001800442f4     libucrt:exit.obj
 0002:0000f300       $unwind$??R<lambda_6e4b09c48022b2350581041d5f6b0c4c>@@QEBA@XZ 0000000180044300     libucrt:exit.obj
 0002:0000f320       $unwind$??$?RV<lambda_d80eeec6fff315bfe5c115232f3240e3>@@AEAV<lambda_6e4b09c48022b2350581041d5f6b0c4c>@@V<lambda_2358e3775559c9db80273638284d5e45>@@@?$__crt_seh_guarded_call@X@@QEAAX$$QEAV<lambda_d80eeec6fff315bfe5c115232f3240e3>@@AEAV<lambda_6e4b09c48022b2350581041d5f6b0c4c>@@$$QEAV<lambda_2358e3775559c9db80273638284d5e45>@@@Z 0000000180044320     libucrt:exit.obj
 0002:0000f344       $unwind$_configure_narrow_argv 0000000180044344     libucrt:argv_parsing.obj
 0002:0000f358       $unwind$??$parse_command_line@D@@YAXPEADPEAPEAD0PEA_K2@Z 0000000180044358     libucrt:argv_parsing.obj
 0002:0000f374       $unwind$??$free_environment@D@@YAXQEAPEAD@Z 0000000180044374     libucrt:environment_initialization.obj
 0002:0000f374       $unwind$??$free_environment@_W@@YAXQEAPEA_W@Z 0000000180044374     libucrt:environment_initialization.obj
 0002:0000f380       $unwind$??$create_environment@D@@YAQEAPEADQEAD@Z 0000000180044380     libucrt:environment_initialization.obj
 0002:0000f398       $unwind$_execute_onexit_table 0000000180044398     libucrt:onexit.obj
 0002:0000f3a0       $unwind$??$?RV<lambda_7777bce6b2f8c936911f934f8298dc43>@@AEAV<lambda_f03950bc5685219e0bcd2087efbe011e>@@V<lambda_3883c3dff614d5e0c5f61bb1ac94921c>@@@?$__crt_seh_guarded_call@H@@QEAAH$$QEAV<lambda_7777bce6b2f8c936911f934f8298dc43>@@AEAV<lambda_f03950bc5685219e0bcd2087efbe011e>@@$$QEAV<lambda_3883c3dff614d5e0c5f61bb1ac94921c>@@@Z 00000001800443a0     libucrt:onexit.obj
 0002:0000f3c4       $unwind$terminate          00000001800443c4     libucrt:terminate.obj
 0002:0000f3e8       $xdatasym                  00000001800443e8     libucrt:strncmp.obj
 0002:0000f3ec       $unwind$_free_base         00000001800443ec     libucrt:free_base.obj
 0002:0000f3ec       $unwind$?destroy_fls@@YAXPEAX@Z 00000001800443ec     libucrt:per_thread_data.obj
 0002:0000f3ec       $unwind$__acrt_locale_free_numeric 00000001800443ec     libucrt:initnum.obj
 0002:0000f3ec       $unwind$__acrt_locale_free_lc_time_if_unreferenced 00000001800443ec     libucrt:locale_refcounting.obj
 0002:0000f3f4       $unwind$__acrt_initialize_fma3 00000001800443f4     libucrt:fma3_available.obj
 0002:0000f400       $xdatasym                  0000000180044400     libucrt:remainder_piby2f_forc.obj
 0002:0000f410       $unwind$_sincos_special    0000000180044410     libucrt:sincos_special.obj
 0002:0000f410       $unwind$_sincosf_special   0000000180044410     libucrt:sincos_special.obj
 0002:0000f418       $unwind$_powf_special      0000000180044418     libucrt:pow_special.obj
 0002:0000f428       $unwind$_pow_special       0000000180044428     libucrt:pow_special.obj
 0002:0000f434       $unwind$_ctrlfp            0000000180044434     libucrt:fpctrl.obj
 0002:0000f45c       $unwind$_call_matherr      000000018004445c     libucrt:libm_error.obj
 0002:0000f464       $unwind$_handle_error      0000000180044464     libucrt:libm_error.obj
 0002:0000f464       $unwind$_handle_errorf     0000000180044464     libucrt:libm_error.obj
 0002:0000f484       $unwind$_exp_special       0000000180044484     libucrt:exp_special.obj
 0002:0000f484       $unwind$_log_special_common 0000000180044484     libucrt:log_special.obj
 0002:0000f490       $xdatasym                  0000000180044490     libucrt:remainder_piby2_forasm.obj
 0002:0000f4a0       $xdatasym                  00000001800444a0     libucrt:remainder_piby2_forfma3.obj
 0002:0000f4b0       $xdatasym                  00000001800444b0     libucrt:remainder_piby2f_forasm.obj
 0002:0000f4b4       $unwind$?construct_ptd_array@@YAXQEAU__acrt_ptd@@@Z 00000001800444b4     libucrt:per_thread_data.obj
 0002:0000f4bc       $unwind$?destroy_ptd_array@@YAXQEAU__acrt_ptd@@@Z 00000001800444bc     libucrt:per_thread_data.obj
 0002:0000f4c4       $unwind$??$?RV<lambda_0ae27a3a962d80f24befdcbee591983d>@@AEAV<lambda_8d0ee55de4b1038c4002e0adecdf1839>@@V<lambda_dc504788e8f1664fe9b84e20bfb512f2>@@@?$__crt_seh_guarded_call@X@@QEAAX$$QEAV<lambda_0ae27a3a962d80f24befdcbee591983d>@@AEAV<lambda_8d0ee55de4b1038c4002e0adecdf1839>@@$$QEAV<lambda_dc504788e8f1664fe9b84e20bfb512f2>@@@Z 00000001800444c4     libucrt:per_thread_data.obj
 0002:0000f4e8       $unwind$??$?RV<lambda_aa87e3671a710a21b5dc78c0bdf72e11>@@AEAV<lambda_92619d2358a28f41a33ba319515a20b9>@@V<lambda_6992ecaafeb10aed2b74cb1fae11a551>@@@?$__crt_seh_guarded_call@X@@QEAAX$$QEAV<lambda_aa87e3671a710a21b5dc78c0bdf72e11>@@AEAV<lambda_92619d2358a28f41a33ba319515a20b9>@@$$QEAV<lambda_6992ecaafeb10aed2b74cb1fae11a551>@@@Z 00000001800444e8     libucrt:per_thread_data.obj
 0002:0000f50c       $unwind$??$?RV<lambda_f2e299630e499de9f9a165e60fcd3db5>@@AEAV<lambda_2ae9d31cdba2644fcbeaf08da7c24588>@@V<lambda_40d01ff24d0e7b3814fdbdcee8eab3c7>@@@?$__crt_seh_guarded_call@X@@QEAAX$$QEAV<lambda_f2e299630e499de9f9a165e60fcd3db5>@@AEAV<lambda_2ae9d31cdba2644fcbeaf08da7c24588>@@$$QEAV<lambda_40d01ff24d0e7b3814fdbdcee8eab3c7>@@@Z 000000018004450c     libucrt:per_thread_data.obj
 0002:0000f530       $unwind$??$?RV<lambda_2d41944a1d46af3157314b8a01080d33>@@AEAV<lambda_8f455de75cd7d7f24b4096f044d8b9e6>@@V<lambda_aa500f224e6afead328df44964fe2772>@@@?$__crt_seh_guarded_call@X@@QEAAX$$QEAV<lambda_2d41944a1d46af3157314b8a01080d33>@@AEAV<lambda_8f455de75cd7d7f24b4096f044d8b9e6>@@$$QEAV<lambda_aa500f224e6afead328df44964fe2772>@@@Z 0000000180044530     libucrt:per_thread_data.obj
 0002:0000f554       $unwind$_invalid_parameter_noinfo 0000000180044554     libucrt:invalid_parameter.obj
 0002:0000f554       $unwind$_log10_special     0000000180044554     libucrt:log_special.obj
 0002:0000f55c       $unwind$__acrt_call_reportfault 000000018004455c     libucrt:invalid_parameter.obj
 0002:0000f57c       $unwind$_invalid_parameter 000000018004457c     libucrt:invalid_parameter.obj
 0002:0000f590       $unwind$??$common_expand_argv_wildcards@D@@YAHQEAPEADQEAPEAPEAD@Z 0000000180044590     libucrt:argv_wildcards.obj
 0002:0000f5a8       $unwind$??$copy_and_add_argument_to_buffer@D@@YAHQEBD0_KAEAV?$argument_list@D@?A0x5f5c8891@@@Z 00000001800445a8     libucrt:argv_wildcards.obj
 0002:0000f5c4       $unwind$??$expand_argument_wildcards@D@@YAHQEAD0AEAV?$argument_list@D@?A0x5f5c8891@@@Z 00000001800445c4     libucrt:argv_wildcards.obj
 0002:0000f5e4       $unwind$_setmbcp_nolock    00000001800445e4     libucrt:mbctype.obj
 0002:0000f604       $unwind$__dcrt_lowio_ensure_console_output_initialized 0000000180044604     libucrt:initcon.obj
 0002:0000f604       $unwind$_isleadbyte_l      0000000180044604     libucrt:_wctype.obj
 0002:0000f604       $unwind$?getSystemCP@@YAHH@Z 0000000180044604     libucrt:mbctype.obj
 0002:0000f60c       $unwind$?update_thread_multibyte_data_internal@@YAPEAU__crt_multibyte_data@@QEAU__acrt_ptd@@QEAPEAU1@@Z 000000018004460c     libucrt:mbctype.obj
 0002:0000f634       $unwind$?setmbcp_internal@@YAHH_NQEAU__acrt_ptd@@QEAPEAU__crt_multibyte_data@@@Z 0000000180044634     libucrt:mbctype.obj
 0002:0000f644       $unwind$?setSBUpLow@@YAXPEAU__crt_multibyte_data@@@Z 0000000180044644     libucrt:mbctype.obj
 0002:0000f660       $unwind$??$?RV<lambda_efdfa57d1f175319df784efa44bb7b81>@@AEAV<lambda_5f0a4c1567f8adc6734073e5d1e1b35c>@@V<lambda_2e8a7d3640ea6ccb4c2413664c2db6fd>@@@?$__crt_seh_guarded_call@X@@QEAAX$$QEAV<lambda_efdfa57d1f175319df784efa44bb7b81>@@AEAV<lambda_5f0a4c1567f8adc6734073e5d1e1b35c>@@$$QEAV<lambda_2e8a7d3640ea6ccb4c2413664c2db6fd>@@@Z 0000000180044660     libucrt:mbctype.obj
 0002:0000f688       $unwind$?x_ismbbtype_l@@YAHPEAU__crt_locale_pointers@@IHH@Z 0000000180044688     libucrt:ismbbyte.obj
 0002:0000f698       $unwind$__dcrt_get_narrow_environment_from_os 0000000180044698     libucrt:get_environment_from_os.obj
 0002:0000f6b0       $unwind$__acrt_initialize_winapi_thunks 00000001800446b0     libucrt:winapi_thunks.obj
 0002:0000f6b8       $unwind$__acrt_LCMapStringEx 00000001800446b8     libucrt:winapi_thunks.obj
 0002:0000f6cc       $unwind$__acrt_initialize_lowio 00000001800446cc     libucrt:ioinit.obj
 0002:0000f6ec       $unwind$?initialize_inherited_file_handles_nolock@@YAXXZ 00000001800446ec     libucrt:ioinit.obj
 0002:0000f708       $unwind$?initialize_stdio_handles_nolock@@YAXXZ 0000000180044708     libucrt:ioinit.obj
 0002:0000f708       $unwind$_free_osfhnd       0000000180044708     libucrt:osfinfo.obj
 0002:0000f71c       $unwind$_query_new_handler 000000018004471c     libucrt:new_handler.obj
 0002:0000f73c       $unwind$__acrt_uninitialize_locale 000000018004473c     libucrt:wsetlocale.obj
 0002:0000f73c       $unwind$__acrt_get_sigabrt_handler 000000018004473c     libucrt:signal.obj
 0002:0000f744       $unwind$raise              0000000180044744     libucrt:signal.obj
 0002:0000f770       $unwind$??$?RV<lambda_450d765d439847d4c735a33c368b5fc0>@@AEAV<lambda_44731a7d0e6d81c3e6aa82d741081786>@@V<lambda_601a2a7da3b7a96e9554ac7215c4b07c>@@@?$__crt_seh_guarded_call@P6AXH@Z@@QEAAP6AXH@Z$$QEAV<lambda_450d765d439847d4c735a33c368b5fc0>@@AEAV<lambda_44731a7d0e6d81c3e6aa82d741081786>@@$$QEAV<lambda_601a2a7da3b7a96e9554ac7215c4b07c>@@@Z 0000000180044770     libucrt:signal.obj
 0002:0000f794       $unwind$?common_flush_all@@YAH_N@Z 0000000180044794     libucrt:fflush.obj
 0002:0000f79c       $unwind$??$?RV<lambda_842d9ff0dc9ef11c61343bbaebe7f885>@@AEAV<lambda_c5860995281e5c4ce005b3de8f5874ee>@@V<lambda_d90129c13df834fdcbf8d2b88dafcf2d>@@@?$__crt_seh_guarded_call@X@@QEAAX$$QEAV<lambda_842d9ff0dc9ef11c61343bbaebe7f885>@@AEAV<lambda_c5860995281e5c4ce005b3de8f5874ee>@@$$QEAV<lambda_d90129c13df834fdcbf8d2b88dafcf2d>@@@Z 000000018004479c     libucrt:fflush.obj
 0002:0000f7c0       $unwind$??$?RV<lambda_886d6c58226a84441f68b9f2b8217b83>@@AEAV<lambda_ab61a845afdef5b7c387490eaf3616ee>@@V<lambda_f7f22ab5edc0698d5f6905b0d3f44752>@@@?$__crt_seh_guarded_call@X@@QEAAX$$QEAV<lambda_886d6c58226a84441f68b9f2b8217b83>@@AEAV<lambda_ab61a845afdef5b7c387490eaf3616ee>@@$$QEAV<lambda_f7f22ab5edc0698d5f6905b0d3f44752>@@@Z 00000001800447c0     libucrt:fflush.obj
 0002:0000f7e8       $unwind$__acrt_initialize_stdio 00000001800447e8     libucrt:_file.obj
 0002:0000f800       $unwind$_mbtowc_l          0000000180044800     libucrt:mbtowc.obj
 0002:0000f818       $unwind$??$?RV<lambda_410d79af7f07d98d83a3f525b3859a53>@@AEAV<lambda_3e16ef9562a7dcce91392c22ab16ea36>@@V<lambda_38119f0e861e05405d8a144b9b982f0a>@@@?$__crt_seh_guarded_call@X@@QEAAX$$QEAV<lambda_410d79af7f07d98d83a3f525b3859a53>@@AEAV<lambda_3e16ef9562a7dcce91392c22ab16ea36>@@$$QEAV<lambda_38119f0e861e05405d8a144b9b982f0a>@@@Z 0000000180044818     libucrt:wsetlocale.obj
 0002:0000f840       $xdatasym                  0000000180044840     libucrt:fpsr.obj
 0002:0000f848       $unwind$_raise_exc         0000000180044848     libucrt:fpexcept.obj
 0002:0000f848       $unwind$_raise_excf        0000000180044848     libucrt:fpexcept.obj
 0002:0000f850       $unwind$_raise_exc_ex      0000000180044850     libucrt:fpexcept.obj
 0002:0000f864       $unwind$__acrt_update_thread_locale_data 0000000180044864     libucrt:locale_refcounting.obj
 0002:0000f888       $unwind$qsort              0000000180044888     libucrt:qsort.obj
 0002:0000f8a0       $chain$4$qsort             00000001800448a0     libucrt:qsort.obj
 0002:0000f8c4       $chain$5$qsort             00000001800448c4     libucrt:qsort.obj
 0002:0000f8d4       $unwind$fallbackMethod     00000001800448d4     libucrt:strpbrk.obj
 0002:0000f8e4       $unwind$_mbsdec_l          00000001800448e4     libucrt:mbsdec.obj
 0002:0000f8f0       $unwind$__acrt_GetStringTypeA 00000001800448f0     libucrt:getstringtypea.obj
 0002:0000f918       $unwind$__acrt_LCMapStringA 0000000180044918     libucrt:lcmapstringa.obj
 0002:0000f928       $unwind$?__acrt_LCMapStringA_stat@@YAHPEAU__crt_locale_pointers@@PEB_WKPEBDHPEADHHH@Z 0000000180044928     libucrt:lcmapstringa.obj
 0002:0000f950       $unwind$?GetTableIndexFromLocaleName@@YAHPEB_W@Z 0000000180044950     libucrt:lcidtoname_downlevel.obj
 0002:0000f968       $unwind$__acrt_lowio_destroy_handle_array 0000000180044968     libucrt:osfinfo.obj
 0002:0000f978       $unwind$__acrt_lowio_ensure_fh_exists 0000000180044978     libucrt:osfinfo.obj
 0002:0000f9a4       $unwind$_close             00000001800449a4     libucrt:close.obj
 0002:0000f9a4       $unwind$_commit            00000001800449a4     libucrt:commit.obj
 0002:0000f9ac       $unwind$??$?RV<lambda_a37b2b86f63e897a80ea819b0eb08c01>@@AEAV<lambda_38ce7e780aa69e748d6df282ebc68efe>@@V<lambda_99fb1378e971ab6e7edea83e3a7a83a2>@@@?$__crt_seh_guarded_call@H@@QEAAH$$QEAV<lambda_a37b2b86f63e897a80ea819b0eb08c01>@@AEAV<lambda_38ce7e780aa69e748d6df282ebc68efe>@@$$QEAV<lambda_99fb1378e971ab6e7edea83e3a7a83a2>@@@Z 00000001800449ac     libucrt:commit.obj
 0002:0000f9d0       $unwind$_write             00000001800449d0     libucrt:write.obj
 0002:0000fa00       $unwind$_write_nolock      0000000180044a00     libucrt:write.obj
 0002:0000fa18       $unwind$?write_double_translated_ansi_nolock@@YA?AUwrite_result@?A0x17268360@@HQEBDI@Z 0000000180044a18     libucrt:write.obj
 0002:0000fa38       $unwind$?write_text_ansi_nolock@@YA?AUwrite_result@?A0x17268360@@HQEBDI@Z 0000000180044a38     libucrt:write.obj
 0002:0000fa38       $unwind$?write_text_utf16le_nolock@@YA?AUwrite_result@?A0x17268360@@HQEBDI@Z 0000000180044a38     libucrt:write.obj
 0002:0000fa58       $unwind$?write_text_utf8_nolock@@YA?AUwrite_result@?A0x17268360@@HQEBDI@Z 0000000180044a58     libucrt:write.obj
 0002:0000fa7c       $unwind$_fcloseall         0000000180044a7c     libucrt:closeall.obj
 0002:0000faa0       $unwind$__acrt_locale_free_monetary 0000000180044aa0     libucrt:initmon.obj
 0002:0000faa8       $unwind$__acrt_locale_free_time 0000000180044aa8     libucrt:inittime.obj
 0002:0000fab8       $unwind$_putwch_nolock     0000000180044ab8     libucrt:putwch.obj
 0002:0000fac0       $unwind$fclose             0000000180044ac0     libucrt:fclose.obj
 0002:0000fae8       $xdatasym                  0000000180044ae8     libucrt:log10.obj
 0002:0000faf4       $unwind$__dcrt_write_console_w 0000000180044af4     libucrt:initcon.obj
 0002:0000fb08       $unwind$??$?RV<lambda_751a882b2c74d4b022dec766aa51a29a>@@AEAV<lambda_628dfdc04ba53c8bfc02c9951375f3f5>@@V<lambda_f6c7be5f7998530c34de24c7437d6b54>@@@?$__crt_seh_guarded_call@H@@QEAAH$$QEAV<lambda_751a882b2c74d4b022dec766aa51a29a>@@AEAV<lambda_628dfdc04ba53c8bfc02c9951375f3f5>@@$$QEAV<lambda_f6c7be5f7998530c34de24c7437d6b54>@@@Z 0000000180044b08     libucrt:close.obj
 0002:0000fb2c       $unwind$_IsNonwritableInCurrentImage 0000000180044b2c     LIBCMT:pesect.obj
 0002:0000fb50       $unwind$__GSHandlerCheckCommon 0000000180044b50     LIBCMT:gshandler.obj
 0002:0000fb58       $xdatasym                  0000000180044b58     LIBCMT:amdsecgs.obj
 0002:0000fb5c       $unwind$__report_securityfailure 0000000180044b5c     LIBCMT:gs_report.obj
 0002:0000fb64       $unwind$__report_gsfailure 0000000180044b64     LIBCMT:gs_report.obj
 0002:0000fb6c       $unwind$capture_current_context 0000000180044b6c     LIBCMT:gs_report.obj
 0002:0000fb78       $unwind$capture_previous_context 0000000180044b78     LIBCMT:gs_report.obj
 0002:0000fb88       $xdatasym                  0000000180044b88     LIBCMT:chkstk.obj
 0002:0000fb90       $xdatasym                  0000000180044b90     libvcruntime:memcmp.obj
 0002:0000fba0       .edata                     0000000180044ba0     fx_example.exp
 0002:0000fbc8       rgpv                       0000000180044bc8     fx_example.exp
 0002:0000fbcc       rgszName                   0000000180044bcc     fx_example.exp
 0002:0000fbd0       rgwOrd                     0000000180044bd0     fx_example.exp
 0002:0000fbd2       szName                     0000000180044bd2     fx_example.exp
 0002:0000fbe1       $N00001                    0000000180044be1     fx_example.exp
 0002:0000ff78       .idata$6                   0000000180044f78     kernel32:KERNEL32.dll
 0003:00000000       $SG8835                    0000000180046000     ringmod.o
 0003:00000010       $SG8836                    0000000180046010     ringmod.o
 0003:00000020       $SG8837                    0000000180046020     ringmod.o
 0003:00000030       $SG8838                    0000000180046030     ringmod.o
 0003:00000040       $SG8841                    0000000180046040     ringmod.o
 0003:00000050       $SG8842                    0000000180046050     ringmod.o
 0003:00000060       loc_param_names            0000000180046060     ringmod.o
 0003:00000080       loc_param_resets           0000000180046080     ringmod.o
 0003:00000090       loc_mod_names              0000000180046090     ringmod.o
 0003:000000a0       $SG9068                    00000001800460a0     ringmod.o
 0003:000000b0       $SG9069                    00000001800460b0     ringmod.o
 0003:000000b8       $SG9070                    00000001800460b8     ringmod.o
 0003:000000c8       $SG9071                    00000001800460c8     ringmod.o
 0003:000000d8       $SG8835                    00000001800460d8     ws_tanh.o
 0003:000000e4       $SG8836                    00000001800460e4     ws_tanh.o
 0003:000000f0       $SG8839                    00000001800460f0     ws_tanh.o
 0003:000000fc       $SG8840                    00000001800460fc     ws_tanh.o
 0003:00000108       loc_param_names            0000000180046108     ws_tanh.o
 0003:00000118       loc_param_resets           0000000180046118     ws_tanh.o
 0003:00000120       loc_mod_names              0000000180046120     ws_tanh.o
 0003:00000130       $SG9034                    0000000180046130     ws_tanh.o
 0003:0000013c       $SG9035                    000000018004613c     ws_tanh.o
 0003:00000140       $SG9036                    0000000180046140     ws_tanh.o
 0003:0000014c       $SG9037                    000000018004614c     ws_tanh.o
 0003:00000158       $SG8835                    0000000180046158     ws_tanh_asym.o
 0003:00000164       $SG8836                    0000000180046164     ws_tanh_asym.o
 0003:00000170       $SG8837                    0000000180046170     ws_tanh_asym.o
 0003:00000178       $SG8838                    0000000180046178     ws_tanh_asym.o
 0003:00000180       $SG8839                    0000000180046180     ws_tanh_asym.o
 0003:00000190       $SG8840                    0000000180046190     ws_tanh_asym.o
 0003:000001a0       $SG8843                    00000001800461a0     ws_tanh_asym.o
 0003:000001b0       $SG8844                    00000001800461b0     ws_tanh_asym.o
 0003:000001c0       $SG8845                    00000001800461c0     ws_tanh_asym.o
 0003:000001c8       $SG8846                    00000001800461c8     ws_tanh_asym.o
 0003:000001d0       loc_param_names            00000001800461d0     ws_tanh_asym.o
 0003:00000200       loc_param_resets           0000000180046200     ws_tanh_asym.o
 0003:00000218       loc_mod_names              0000000180046218     ws_tanh_asym.o
 0003:00000238       $SG9046                    0000000180046238     ws_tanh_asym.o
 0003:0000024c       $SG9047                    000000018004624c     ws_tanh_asym.o
 0003:00000250       $SG9048                    0000000180046250     ws_tanh_asym.o
 0003:00000268       $SG9049                    0000000180046268     ws_tanh_asym.o
 0003:00000278       $SG8835                    0000000180046278     bitcrusher.o
 0003:00000284       $SG8836                    0000000180046284     bitcrusher.o
 0003:00000290       $SG8837                    0000000180046290     bitcrusher.o
 0003:000002a0       $SG8840                    00000001800462a0     bitcrusher.o
 0003:000002ac       $SG8841                    00000001800462ac     bitcrusher.o
 0003:000002b8       loc_param_names            00000001800462b8     bitcrusher.o
 0003:000002d0       loc_param_resets           00000001800462d0     bitcrusher.o
 0003:000002dc       $SG9045                    00000001800462dc     bitcrusher.o
 0003:000002e0       loc_mod_names              00000001800462e0     bitcrusher.o
 0003:000002f0       $SG9044                    00000001800462f0     bitcrusher.o
 0003:00000300       $SG9046                    0000000180046300     bitcrusher.o
 0003:00000310       $SG9047                    0000000180046310     bitcrusher.o
 0003:00000320       $SG8835                    0000000180046320     ws_exp.o
 0003:0000032c       $SG8836                    000000018004632c     ws_exp.o
 0003:00000338       $SG8837                    0000000180046338     ws_exp.o
 0003:00000348       $SG8838                    0000000180046348     ws_exp.o
 0003:00000358       $SG8841                    0000000180046358     ws_exp.o
 0003:00000364       $SG8842                    0000000180046364     ws_exp.o
 0003:00000370       loc_param_names            0000000180046370     ws_exp.o
 0003:00000390       loc_param_resets           0000000180046390     ws_exp.o
 0003:000003a0       loc_mod_names              00000001800463a0     ws_exp.o
 0003:000003b0       $SG9046                    00000001800463b0     ws_exp.o
 0003:000003bc       $SG9047                    00000001800463bc     ws_exp.o
 0003:000003c0       $SG9048                    00000001800463c0     ws_exp.o
 0003:000003d0       $SG9049                    00000001800463d0     ws_exp.o
 0003:000003e0       $SG8835                    00000001800463e0     ws_fm.o
 0003:000003ec       $SG8836                    00000001800463ec     ws_fm.o
 0003:000003f4       $SG8837                    00000001800463f4     ws_fm.o
 0003:000003fc       $SG8838                    00000001800463fc     ws_fm.o
 0003:00000408       $SG8839                    0000000180046408     ws_fm.o
 0003:00000418       $SG8840                    0000000180046418     ws_fm.o
 0003:00000428       $SG8841                    0000000180046428     ws_fm.o
 0003:00000438       $SG8842                    0000000180046438     ws_fm.o
 0003:00000448       $SG8845                    0000000180046448     ws_fm.o
 0003:00000454       $SG8846                    0000000180046454     ws_fm.o
 0003:0000045c       $SG8847                    000000018004645c     ws_fm.o
 0003:00000468       $SG8848                    0000000180046468     ws_fm.o
 0003:00000480       loc_param_names            0000000180046480     ws_fm.o
 0003:000004c0       loc_param_resets           00000001800464c0     ws_fm.o
 0003:000004e0       loc_mod_names              00000001800464e0     ws_fm.o
 0003:00000500       $SG9126                    0000000180046500     ws_fm.o
 0003:0000050c       $SG9127                    000000018004650c     ws_fm.o
 0003:00000510       $SG9128                    0000000180046510     ws_fm.o
 0003:0000051c       $SG9129                    000000018004651c     ws_fm.o
 0003:00000520       $SG8835                    0000000180046520     resample_nearest.o
 0003:0000052c       $SG8836                    000000018004652c     resample_nearest.o
 0003:00000538       $SG8839                    0000000180046538     resample_nearest.o
 0003:00000544       $SG8840                    0000000180046544     resample_nearest.o
 0003:00000550       loc_param_names            0000000180046550     resample_nearest.o
 0003:00000560       loc_param_resets           0000000180046560     resample_nearest.o
 0003:00000568       loc_mod_names              0000000180046568     resample_nearest.o
 0003:00000578       $SG9061                    0000000180046578     resample_nearest.o
 0003:00000590       $SG9062                    0000000180046590     resample_nearest.o
 0003:00000598       $SG9063                    0000000180046598     resample_nearest.o
 0003:000005b0       $SG9064                    00000001800465b0     resample_nearest.o
 0003:000005c0       $SG8835                    00000001800465c0     resample_linear.o
 0003:000005cc       $SG8836                    00000001800465cc     resample_linear.o
 0003:000005d8       $SG8839                    00000001800465d8     resample_linear.o
 0003:000005e4       $SG8840                    00000001800465e4     resample_linear.o
 0003:000005f0       loc_param_names            00000001800465f0     resample_linear.o
 0003:00000600       loc_param_resets           0000000180046600     resample_linear.o
 0003:00000608       loc_mod_names              0000000180046608     resample_linear.o
 0003:00000618       $SG9063                    0000000180046618     resample_linear.o
 0003:0000062c       $SG9064                    000000018004662c     resample_linear.o
 0003:00000630       $SG9065                    0000000180046630     resample_linear.o
 0003:00000640       $SG9066                    0000000180046640     resample_linear.o
 0003:00000650       ?loc_param_names@@3PAPEBDA 0000000180046650     biquad_lpf_1.o
 0003:00000678       ?loc_param_resets@@3PAMA   0000000180046678     biquad_lpf_1.o
 0003:00000690       ?loc_mod_names@@3PAPEBDA   0000000180046690     biquad_lpf_1.o
 0003:000006b0       ?loc_param_names@@3PAPEBDA 00000001800466b0     biquad_lpf_2.o
 0003:000006d8       ?loc_param_resets@@3PAMA   00000001800466d8     biquad_lpf_2.o
 0003:000006f0       ?loc_mod_names@@3PAPEBDA   00000001800466f0     biquad_lpf_2.o
 0003:00000710       ?loc_param_names@@3PAPEBDA 0000000180046710     biquad_lpf_3.o
 0003:00000738       ?loc_param_resets@@3PAMA   0000000180046738     biquad_lpf_3.o
 0003:00000750       ?loc_mod_names@@3PAPEBDA   0000000180046750     biquad_lpf_3.o
 0003:00000770       ?loc_param_names@@3PAPEBDA 0000000180046770     biquad_lpf_4.o
 0003:00000798       ?loc_param_resets@@3PAMA   0000000180046798     biquad_lpf_4.o
 0003:000007b0       ?loc_mod_names@@3PAPEBDA   00000001800467b0     biquad_lpf_4.o
 0003:000007d0       ?loc_param_names@@3PAPEBDA 00000001800467d0     biquad_hpf_1.o
 0003:000007f8       ?loc_param_resets@@3PAMA   00000001800467f8     biquad_hpf_1.o
 0003:00000810       ?loc_mod_names@@3PAPEBDA   0000000180046810     biquad_hpf_1.o
 0003:00000830       ?loc_param_names@@3PAPEBDA 0000000180046830     biquad_hpf_2.o
 0003:00000858       ?loc_param_resets@@3PAMA   0000000180046858     biquad_hpf_2.o
 0003:00000870       ?loc_mod_names@@3PAPEBDA   0000000180046870     biquad_hpf_2.o
 0003:00000890       ?loc_param_names@@3PAPEBDA 0000000180046890     biquad_hpf_3.o
 0003:000008b8       ?loc_param_resets@@3PAMA   00000001800468b8     biquad_hpf_3.o
 0003:000008d0       ?loc_mod_names@@3PAPEBDA   00000001800468d0     biquad_hpf_3.o
 0003:000008f0       ?loc_param_names@@3PAPEBDA 00000001800468f0     biquad_hpf_4.o
 0003:00000918       ?loc_param_resets@@3PAMA   0000000180046918     biquad_hpf_4.o
 0003:00000930       ?loc_mod_names@@3PAPEBDA   0000000180046930     biquad_hpf_4.o
 0003:00000950       ?loc_param_names@@3PAPEBDA 0000000180046950     biquad_bpf_1.o
 0003:00000978       ?loc_param_resets@@3PAMA   0000000180046978     biquad_bpf_1.o
 0003:00000990       ?loc_mod_names@@3PAPEBDA   0000000180046990     biquad_bpf_1.o
 0003:000009b0       ?loc_param_names@@3PAPEBDA 00000001800469b0     biquad_bpf_2.o
 0003:000009d8       ?loc_param_resets@@3PAMA   00000001800469d8     biquad_bpf_2.o
 0003:000009f0       ?loc_mod_names@@3PAPEBDA   00000001800469f0     biquad_bpf_2.o
 0003:00000a10       ?loc_param_names@@3PAPEBDA 0000000180046a10     biquad_bpf_3.o
 0003:00000a38       ?loc_param_resets@@3PAMA   0000000180046a38     biquad_bpf_3.o
 0003:00000a50       ?loc_mod_names@@3PAPEBDA   0000000180046a50     biquad_bpf_3.o
 0003:00000a70       ?loc_param_names@@3PAPEBDA 0000000180046a70     biquad_bpf_4.o
 0003:00000a98       ?loc_param_resets@@3PAMA   0000000180046a98     biquad_bpf_4.o
 0003:00000ab0       ?loc_mod_names@@3PAPEBDA   0000000180046ab0     biquad_bpf_4.o
 0003:00000ad0       ?loc_param_names@@3PAPEBDA 0000000180046ad0     biquad_brf_1.o
 0003:00000af8       ?loc_param_resets@@3PAMA   0000000180046af8     biquad_brf_1.o
 0003:00000b10       ?loc_mod_names@@3PAPEBDA   0000000180046b10     biquad_brf_1.o
 0003:00000b30       ?loc_param_names@@3PAPEBDA 0000000180046b30     biquad_brf_2.o
 0003:00000b58       ?loc_param_resets@@3PAMA   0000000180046b58     biquad_brf_2.o
 0003:00000b70       ?loc_mod_names@@3PAPEBDA   0000000180046b70     biquad_brf_2.o
 0003:00000b90       ?loc_param_names@@3PAPEBDA 0000000180046b90     biquad_brf_3.o
 0003:00000bb8       ?loc_param_resets@@3PAMA   0000000180046bb8     biquad_brf_3.o
 0003:00000bd0       ?loc_mod_names@@3PAPEBDA   0000000180046bd0     biquad_brf_3.o
 0003:00000bf0       ?loc_param_names@@3PAPEBDA 0000000180046bf0     biquad_brf_4.o
 0003:00000c18       ?loc_param_resets@@3PAMA   0000000180046c18     biquad_brf_4.o
 0003:00000c30       ?loc_mod_names@@3PAPEBDA   0000000180046c30     biquad_brf_4.o
 0003:00000c50       ?loc_param_names@@3PAPEBDA 0000000180046c50     biquad_peq_1.o
 0003:00000c80       ?loc_param_resets@@3PAMA   0000000180046c80     biquad_peq_1.o
 0003:00000c98       ?loc_mod_names@@3PAPEBDA   0000000180046c98     biquad_peq_1.o
 0003:00000cb8       ?loc_param_names@@3PAPEBDA 0000000180046cb8     biquad_peq_2.o
 0003:00000ce8       ?loc_param_resets@@3PAMA   0000000180046ce8     biquad_peq_2.o
 0003:00000d00       ?loc_mod_names@@3PAPEBDA   0000000180046d00     biquad_peq_2.o
 0003:00000d20       ?loc_param_names@@3PAPEBDA 0000000180046d20     biquad_peq_3.o
 0003:00000d50       ?loc_param_resets@@3PAMA   0000000180046d50     biquad_peq_3.o
 0003:00000d68       ?loc_mod_names@@3PAPEBDA   0000000180046d68     biquad_peq_3.o
 0003:00000d88       ?loc_param_names@@3PAPEBDA 0000000180046d88     biquad_peq_4.o
 0003:00000db8       ?loc_param_resets@@3PAMA   0000000180046db8     biquad_peq_4.o
 0003:00000dd0       ?loc_mod_names@@3PAPEBDA   0000000180046dd0     biquad_peq_4.o
 0003:00000df0       ?loc_param_names@@3PAPEBDA 0000000180046df0     biquad_lsh_1.o
 0003:00000e20       ?loc_param_resets@@3PAMA   0000000180046e20     biquad_lsh_1.o
 0003:00000e38       ?loc_mod_names@@3PAPEBDA   0000000180046e38     biquad_lsh_1.o
 0003:00000e58       ?loc_param_names@@3PAPEBDA 0000000180046e58     biquad_lsh_2.o
 0003:00000e88       ?loc_param_resets@@3PAMA   0000000180046e88     biquad_lsh_2.o
 0003:00000ea0       ?loc_mod_names@@3PAPEBDA   0000000180046ea0     biquad_lsh_2.o
 0003:00000ec0       ?loc_param_names@@3PAPEBDA 0000000180046ec0     biquad_lsh_3.o
 0003:00000ef0       ?loc_param_resets@@3PAMA   0000000180046ef0     biquad_lsh_3.o
 0003:00000f08       ?loc_mod_names@@3PAPEBDA   0000000180046f08     biquad_lsh_3.o
 0003:00000f28       ?loc_param_names@@3PAPEBDA 0000000180046f28     biquad_lsh_4.o
 0003:00000f58       ?loc_param_resets@@3PAMA   0000000180046f58     biquad_lsh_4.o
 0003:00000f70       ?loc_mod_names@@3PAPEBDA   0000000180046f70     biquad_lsh_4.o
 0003:00000f90       ?loc_param_names@@3PAPEBDA 0000000180046f90     biquad_hsh_1.o
 0003:00000fc0       ?loc_param_resets@@3PAMA   0000000180046fc0     biquad_hsh_1.o
 0003:00000fd8       ?loc_mod_names@@3PAPEBDA   0000000180046fd8     biquad_hsh_1.o
 0003:00000ff8       ?loc_param_names@@3PAPEBDA 0000000180046ff8     biquad_hsh_2.o
 0003:00001028       ?loc_param_resets@@3PAMA   0000000180047028     biquad_hsh_2.o
 0003:00001040       ?loc_mod_names@@3PAPEBDA   0000000180047040     biquad_hsh_2.o
 0003:00001060       ?loc_param_names@@3PAPEBDA 0000000180047060     biquad_hsh_3.o
 0003:00001090       ?loc_param_resets@@3PAMA   0000000180047090     biquad_hsh_3.o
 0003:000010a8       ?loc_mod_names@@3PAPEBDA   00000001800470a8     biquad_hsh_3.o
 0003:000010c8       ?loc_param_names@@3PAPEBDA 00000001800470c8     biquad_hsh_4.o
 0003:000010f8       ?loc_param_resets@@3PAMA   00000001800470f8     biquad_hsh_4.o
 0003:00001110       ?loc_mod_names@@3PAPEBDA   0000000180047110     biquad_hsh_4.o
 0003:00001130       $SG12503                   0000000180047130     amp.o
 0003:0000113c       $SG12504                   000000018004713c     amp.o
 0003:00001148       $SG12507                   0000000180047148     amp.o
 0003:00001154       $SG12508                   0000000180047154     amp.o
 0003:00001160       loc_param_names            0000000180047160     amp.o
 0003:00001170       loc_param_resets           0000000180047170     amp.o
 0003:00001178       loc_mod_names              0000000180047178     amp.o
 0003:00001188       $SG12710                   0000000180047188     amp.o
 0003:00001190       $SG12711                   0000000180047190     amp.o
 0003:00001194       $SG12712                   0000000180047194     amp.o
 0003:00001198       $SG12713                   0000000180047198     amp.o
 0003:000011a0       $SG12503                   00000001800471a0     pan.o
 0003:000011ac       $SG12504                   00000001800471ac     pan.o
 0003:000011b4       $SG12505                   00000001800471b4     pan.o
 0003:000011b8       $SG12508                   00000001800471b8     pan.o
 0003:000011c4       $SG12509                   00000001800471c4     pan.o
 0003:000011cc       $SG12510                   00000001800471cc     pan.o
 0003:000011d0       loc_param_names            00000001800471d0     pan.o
 0003:000011e8       loc_param_resets           00000001800471e8     pan.o
 0003:000011f4       $SG12710                   00000001800471f4     pan.o
 0003:000011f8       loc_mod_names              00000001800471f8     pan.o
 0003:00001210       $SG12709                   0000000180047210     pan.o
 0003:00001218       $SG12711                   0000000180047218     pan.o
 0003:0000121c       $SG12712                   000000018004721c     pan.o
 0003:00001220       $SG8835                    0000000180047220     ws_smoothstep.o
 0003:0000122c       $SG8836                    000000018004722c     ws_smoothstep.o
 0003:00001238       $SG8837                    0000000180047238     ws_smoothstep.o
 0003:00001240       $SG8838                    0000000180047240     ws_smoothstep.o
 0003:00001248       $SG8839                    0000000180047248     ws_smoothstep.o
 0003:00001250       $SG8842                    0000000180047250     ws_smoothstep.o
 0003:0000125c       $SG8843                    000000018004725c     ws_smoothstep.o
 0003:00001268       $SG8844                    0000000180047268     ws_smoothstep.o
 0003:00001270       $SG8845                    0000000180047270     ws_smoothstep.o
 0003:00001278       loc_param_names            0000000180047278     ws_smoothstep.o
 0003:000012a0       loc_param_resets           00000001800472a0     ws_smoothstep.o
 0003:000012b4       $SG9060                    00000001800472b4     ws_smoothstep.o
 0003:000012b8       loc_mod_names              00000001800472b8     ws_smoothstep.o
 0003:000012d8       $SG9059                    00000001800472d8     ws_smoothstep.o
 0003:000012f0       $SG9061                    00000001800472f0     ws_smoothstep.o
 0003:00001308       $SG9062                    0000000180047308     ws_smoothstep.o
 0003:00001318       ?loc_param_names@@3PAPEBDA 0000000180047318     dly_1.o
 0003:00001338       ?loc_param_resets@@3PAMA   0000000180047338     dly_1.o
 0003:00001348       ?loc_mod_names@@3PAPEBDA   0000000180047348     dly_1.o
 0003:00001370       ?loc_param_names@@3PAPEBDA 0000000180047370     dly_2.o
 0003:000013b0       ?loc_param_resets@@3PAMA   00000001800473b0     dly_2.o
 0003:000013d0       ?loc_mod_names@@3PAPEBDA   00000001800473d0     dly_2.o
 0003:000013f0       ?loc_param_names@@3PAPEBDA 00000001800473f0     dly_flt_2.o
 0003:00001430       ?loc_param_resets@@3PAMA   0000000180047430     dly_flt_2.o
 0003:00001450       ?loc_mod_names@@3PAPEBDA   0000000180047450     dly_flt_2.o
 0003:00001470       ?loc_param_names@@3PAPEBDA 0000000180047470     bitflipper.o
 0003:00001498       ?loc_param_resets@@3PAMA   0000000180047498     bitflipper.o
 0003:000014b0       ?loc_mod_names@@3PAPEBDA   00000001800474b0     bitflipper.o
 0003:00001500       ?__vcrt_flsindex@@3KA      0000000180047500     libvcruntime:per_thread_data.obj
 0003:00001520       ?dazSupported@?1??_ctrlfp@@9@9 0000000180047520     libucrt:fpctrl.obj
 0003:00001530       ?__acrt_flsindex@@3KA      0000000180047530     libucrt:per_thread_data.obj
 0003:00001534       ?errno_no_memory@@3HA      0000000180047534     libucrt:errno.obj
 0003:00001538       ?doserrno_no_memory@@3KA   0000000180047538     libucrt:errno.obj
 0003:00001770       _mbctypes                  0000000180047770     libucrt:mbctype.obj
 0003:00001880       _mbcasemaps                0000000180047880     libucrt:mbctype.obj
 0003:00001980       ?__rgctypeflag@@3PADA      0000000180047980     libucrt:mbctype.obj
 0003:00001990       ?__rgcode_page_info@@3PAUcode_page_info@@A 0000000180047990     libucrt:mbctype.obj
 0003:00001db0       ?__dcrt_lowio_console_output_handle@@3PEAXEA 0000000180047db0     libucrt:initcon.obj
 0003:00001dc0       ?__proc_attached@@3HA      0000000180047dc0     LIBCMT:dll_dllmain.obj
 0003:00001e00       ?is_initialized_as_dll@@3_NA 0000000180047e00     LIBCMT:utility.obj
 0003:00001e01       ?module_local_atexit_table_initialized@@3_NA 0000000180047e01     LIBCMT:utility.obj
 0003:00001e08       ?module_local_atexit_table@@3U_onexit_table_t@@A 0000000180047e08     LIBCMT:utility.obj
 0003:00001e20       ?module_local_at_quick_exit_table@@3U_onexit_table_t@@A 0000000180047e20     LIBCMT:utility.obj
 0003:00001e88       ?heap@@3V_HeapManager@@A   0000000180047e88     libvcruntime:undname.obj
 0003:00001eb0       ?__vcrt_startup_thread_ptd@@3U__vcrt_ptd@@A 0000000180047eb0     libvcruntime:per_thread_data.obj
 0003:00001f30       __vcrt_lock_table          0000000180047f30     libvcruntime:locks.obj
 0003:00001f58       __vcrt_locks_initialized   0000000180047f58     libvcruntime:locks.obj
 0003:00001f60       ?module_handles@@3PAPEAUHINSTANCE__@@A 0000000180047f60     libvcruntime:winapi_downlevel.obj
 0003:00001f78       ?function_pointers@@3PAPEAXA 0000000180047f78     libvcruntime:winapi_downlevel.obj
 0003:00001fa8       ?c_termination_complete@@3JA 0000000180047fa8     libucrt:exit.obj
 0003:00001fb0       ?thread_local_exit_callback_func@@3P6AXPEAXK0@ZEA 0000000180047fb0     libucrt:exit.obj
 0003:00001fc0       ?program_name@?1???$common_configure_argv@D@@YAHW4_crt_argv_mode@@@Z@4PADA 0000000180047fc0     libucrt:argv_parsing.obj
 0003:00002120       ?__acrt_lock_table@@3PAU_RTL_CRITICAL_SECTION@@A 0000000180048120     libucrt:locks.obj
 0003:00002350       ?__acrt_locks_initialized@@3IA 0000000180048350     libucrt:locks.obj
 0003:00002358       ?__acrt_invalid_parameter_handler@@3V?$dual_state_global@P6AXPEB_W00I_K@Z@__crt_state_management@@A 0000000180048358     libucrt:invalid_parameter.obj
 0003:00002378       ?fSystemSet@@3HA           0000000180048378     libucrt:mbctype.obj
 0003:0000237c       ?initialized@?1??__acrt_initialize_multibyte@@9@4_NA 000000018004837c     libucrt:mbctype.obj
 0003:000023b0       ?module_handles@@3PAPEAUHINSTANCE__@@A 00000001800483b0     libucrt:winapi_thunks.obj
 0003:00002450       ?encoded_function_pointers@@3PAPEAXA 0000000180048450     libucrt:winapi_thunks.obj
 0003:00002978       ?__acrt_new_handler@@3V?$dual_state_global@P6AH_K@Z@__crt_state_management@@A 0000000180048978     libucrt:new_handler.obj
 0003:00002980       ?ctrlc_action@@3V?$dual_state_global@P6AXH@Z@__crt_state_management@@A 0000000180048980     libucrt:signal.obj
 0003:00002988       ?ctrlbreak_action@@3V?$dual_state_global@P6AXH@Z@__crt_state_management@@A 0000000180048988     libucrt:signal.obj
 0003:00002990       ?abort_action@@3V?$dual_state_global@P6AXH@Z@__crt_state_management@@A 0000000180048990     libucrt:signal.obj
 0003:00002998       ?term_action@@3V?$dual_state_global@P6AXH@Z@__crt_state_management@@A 0000000180048998     libucrt:signal.obj
 0003:000029a0       ?user_matherr@@3V?$dual_state_global@P6AHPEAU_exception@@@Z@__crt_state_management@@A 00000001800489a0     libucrt:matherr.obj
 0003:000029d4       ?__acrt_global_new_mode@@3V?$dual_state_global@J@__crt_state_management@@A 00000001800489d4     libucrt:new_mode.obj
 0003:000029e0       ?__acrt_app_type@@3W4_crt_app_type@@A 00000001800489e0     libucrt:report_runtime_error.obj
 0003:000029f0       GS_ExceptionRecord         00000001800489f0     LIBCMT:gs_report.obj
 0003:00002a90       GS_ContextRecord           0000000180048a90     LIBCMT:gs_report.obj
 0004:00000000       $pdata$loc_prepare_block   0000000180049000     ringmod.o
 0004:0000000c       $pdata$loc_process_fx_replace 000000018004900c     ringmod.o
 0004:00000018       $pdata$3$loc_process_fx_replace 0000000180049018     ringmod.o
 0004:00000024       $pdata$6$loc_process_fx_replace 0000000180049024     ringmod.o
 0004:00000030       $pdata$7$loc_process_fx_replace 0000000180049030     ringmod.o
 0004:0000003c       $pdata$8$loc_process_fx_replace 000000018004903c     ringmod.o
 0004:00000048       $pdata$9$loc_process_fx_replace 0000000180049048     ringmod.o
 0004:00000054       $pdata$10$loc_process_fx_replace 0000000180049054     ringmod.o
 0004:00000060       $pdata$loc_shared_new      0000000180049060     ringmod.o
 0004:0000006c       $pdata$loc_voice_new       000000018004906c     ringmod.o
 0004:00000078       $pdata$ringmod_init        0000000180049078     ringmod.o
 0004:00000084       $pdata$loc_prepare_block   0000000180049084     ws_tanh.o
 0004:00000090       $pdata$loc_process_fx_replace 0000000180049090     ws_tanh.o
 0004:0000009c       $pdata$3$loc_process_fx_replace 000000018004909c     ws_tanh.o
 0004:000000a8       $pdata$7$loc_process_fx_replace 00000001800490a8     ws_tanh.o
 0004:000000b4       $pdata$8$loc_process_fx_replace 00000001800490b4     ws_tanh.o
 0004:000000c0       $pdata$9$loc_process_fx_replace 00000001800490c0     ws_tanh.o
 0004:000000cc       $pdata$loc_shared_new      00000001800490cc     ws_tanh.o
 0004:000000d8       $pdata$loc_voice_new       00000001800490d8     ws_tanh.o
 0004:000000e4       $pdata$ws_tanh_init        00000001800490e4     ws_tanh.o
 0004:000000f0       $pdata$loc_prepare_block   00000001800490f0     ws_tanh_asym.o
 0004:000000fc       $pdata$loc_process_fx_replace 00000001800490fc     ws_tanh_asym.o
 0004:00000108       $pdata$11$loc_process_fx_replace 0000000180049108     ws_tanh_asym.o
 0004:00000114       $pdata$12$loc_process_fx_replace 0000000180049114     ws_tanh_asym.o
 0004:00000120       $pdata$loc_shared_new      0000000180049120     ws_tanh_asym.o
 0004:0000012c       $pdata$loc_voice_new       000000018004912c     ws_tanh_asym.o
 0004:00000138       $pdata$ws_tanh_asym_init   0000000180049138     ws_tanh_asym.o
 0004:00000144       $pdata$loc_prepare_block   0000000180049144     bitcrusher.o
 0004:00000150       $pdata$loc_process_fx_replace 0000000180049150     bitcrusher.o
 0004:0000015c       $pdata$2$loc_process_fx_replace 000000018004915c     bitcrusher.o
 0004:00000168       $pdata$3$loc_process_fx_replace 0000000180049168     bitcrusher.o
 0004:00000174       $pdata$4$loc_process_fx_replace 0000000180049174     bitcrusher.o
 0004:00000180       $pdata$5$loc_process_fx_replace 0000000180049180     bitcrusher.o
 0004:0000018c       $pdata$loc_shared_new      000000018004918c     bitcrusher.o
 0004:00000198       $pdata$loc_voice_new       0000000180049198     bitcrusher.o
 0004:000001a4       $pdata$bitcrusher_init     00000001800491a4     bitcrusher.o
 0004:000001b0       $pdata$loc_prepare_block   00000001800491b0     ws_exp.o
 0004:000001bc       $pdata$loc_process_fx_replace 00000001800491bc     ws_exp.o
 0004:000001c8       $pdata$9$loc_process_fx_replace 00000001800491c8     ws_exp.o
 0004:000001d4       $pdata$12$loc_process_fx_replace 00000001800491d4     ws_exp.o
 0004:000001e0       $pdata$13$loc_process_fx_replace 00000001800491e0     ws_exp.o
 0004:000001ec       $pdata$14$loc_process_fx_replace 00000001800491ec     ws_exp.o
 0004:000001f8       $pdata$loc_shared_new      00000001800491f8     ws_exp.o
 0004:00000204       $pdata$loc_voice_new       0000000180049204     ws_exp.o
 0004:00000210       $pdata$ws_exp_init         0000000180049210     ws_exp.o
 0004:0000021c       $pdata$biquad_init         000000018004921c     ws_fm.o
 0004:00000228       $pdata$biquad_filter       0000000180049228     ws_fm.o
 0004:00000234       $pdata$loc_prepare_block   0000000180049234     ws_fm.o
 0004:00000240       $pdata$loc_process_fx_replace 0000000180049240     ws_fm.o
 0004:0000024c       $pdata$2$loc_process_fx_replace 000000018004924c     ws_fm.o
 0004:00000258       $pdata$11$loc_process_fx_replace 0000000180049258     ws_fm.o
 0004:00000264       $pdata$12$loc_process_fx_replace 0000000180049264     ws_fm.o
 0004:00000270       $pdata$13$loc_process_fx_replace 0000000180049270     ws_fm.o
 0004:0000027c       $pdata$14$loc_process_fx_replace 000000018004927c     ws_fm.o
 0004:00000288       $pdata$15$loc_process_fx_replace 0000000180049288     ws_fm.o
 0004:00000294       $pdata$loc_shared_new      0000000180049294     ws_fm.o
 0004:000002a0       $pdata$loc_voice_new       00000001800492a0     ws_fm.o
 0004:000002ac       $pdata$ws_fm_init          00000001800492ac     ws_fm.o
 0004:000002b8       $pdata$loc_process_fx_replace 00000001800492b8     resample_nearest.o
 0004:000002c4       $pdata$0$loc_process_fx_replace 00000001800492c4     resample_nearest.o
 0004:000002d0       $pdata$1$loc_process_fx_replace 00000001800492d0     resample_nearest.o
 0004:000002dc       $pdata$loc_shared_new      00000001800492dc     resample_nearest.o
 0004:000002e8       $pdata$loc_voice_new       00000001800492e8     resample_nearest.o
 0004:000002f4       $pdata$resample_nearest_init 00000001800492f4     resample_nearest.o
 0004:00000300       $pdata$loc_process_fx_replace 0000000180049300     resample_linear.o
 0004:0000030c       $pdata$2$loc_process_fx_replace 000000018004930c     resample_linear.o
 0004:00000318       $pdata$3$loc_process_fx_replace 0000000180049318     resample_linear.o
 0004:00000324       $pdata$4$loc_process_fx_replace 0000000180049324     resample_linear.o
 0004:00000330       $pdata$5$loc_process_fx_replace 0000000180049330     resample_linear.o
 0004:0000033c       $pdata$loc_shared_new      000000018004933c     resample_linear.o
 0004:00000348       $pdata$loc_voice_new       0000000180049348     resample_linear.o
 0004:00000354       $pdata$resample_linear_init 0000000180049354     resample_linear.o
 0004:00000360       $pdata$?calcParams@StBiquadCoeff@@QEAAXHMMM@Z 0000000180049360     biquad.o
 0004:0000036c       $pdata$0$?calcParams@StBiquadCoeff@@QEAAXHMMM@Z 000000018004936c     biquad.o
 0004:00000378       $pdata$1$?calcParams@StBiquadCoeff@@QEAAXHMMM@Z 0000000180049378     biquad.o
 0004:00000384       $pdata$2$?calcParams@StBiquadCoeff@@QEAAXHMMM@Z 0000000180049384     biquad.o
 0004:00000390       $pdata$4$?calcParams@StBiquadCoeff@@QEAAXHMMM@Z 0000000180049390     biquad.o
 0004:0000039c       $pdata$5$?calcParams@StBiquadCoeff@@QEAAXHMMM@Z 000000018004939c     biquad.o
 0004:000003a8       $pdata$6$?calcParams@StBiquadCoeff@@QEAAXHMMM@Z 00000001800493a8     biquad.o
 0004:000003b4       $pdata$?calcParams@StBiquad@@QEAAXIHMMM@Z 00000001800493b4     biquad_lpf_1.o
 0004:000003c0       $pdata$?loc_prepare_block@@YAXPEAUst_plugin_voice_s@@IMMMM@Z 00000001800493c0     biquad_lpf_1.o
 0004:000003cc       $pdata$?loc_process_fx_replace@@YAXPEAUst_plugin_voice_s@@HPEBMPEAMI@Z 00000001800493cc     biquad_lpf_1.o
 0004:000003d8       $pdata$7$?loc_process_fx_replace@@YAXPEAUst_plugin_voice_s@@HPEBMPEAMI@Z 00000001800493d8     biquad_lpf_1.o
 0004:000003e4       $pdata$8$?loc_process_fx_replace@@YAXPEAUst_plugin_voice_s@@HPEBMPEAMI@Z 00000001800493e4     biquad_lpf_1.o
 0004:000003f0       $pdata$?loc_shared_new@@YAPEAUst_plugin_shared_s@@PEAUst_plugin_info_s@@@Z 00000001800493f0     biquad_lpf_1.o
 0004:000003fc       $pdata$?loc_voice_new@@YAPEAUst_plugin_voice_s@@PEAUst_plugin_info_s@@@Z 00000001800493fc     biquad_lpf_1.o
 0004:00000408       $pdata$biquad_lpf_1_init   0000000180049408     biquad_lpf_1.o
 0004:00000414       $pdata$?loc_prepare_block@@YAXPEAUst_plugin_voice_s@@IMMMM@Z 0000000180049414     biquad_lpf_2.o
 0004:00000420       $pdata$?loc_process_fx_replace@@YAXPEAUst_plugin_voice_s@@HPEBMPEAMI@Z 0000000180049420     biquad_lpf_2.o
 0004:0000042c       $pdata$8$?loc_process_fx_replace@@YAXPEAUst_plugin_voice_s@@HPEBMPEAMI@Z 000000018004942c     biquad_lpf_2.o
 0004:00000438       $pdata$9$?loc_process_fx_replace@@YAXPEAUst_plugin_voice_s@@HPEBMPEAMI@Z 0000000180049438     biquad_lpf_2.o
 0004:00000444       $pdata$?loc_shared_new@@YAPEAUst_plugin_shared_s@@PEAUst_plugin_info_s@@@Z 0000000180049444     biquad_lpf_2.o
 0004:00000450       $pdata$?loc_voice_new@@YAPEAUst_plugin_voice_s@@PEAUst_plugin_info_s@@@Z 0000000180049450     biquad_lpf_2.o
 0004:0000045c       $pdata$biquad_lpf_2_init   000000018004945c     biquad_lpf_2.o
 0004:00000468       $pdata$?loc_prepare_block@@YAXPEAUst_plugin_voice_s@@IMMMM@Z 0000000180049468     biquad_lpf_3.o
 0004:00000474       $pdata$?loc_process_fx_replace@@YAXPEAUst_plugin_voice_s@@HPEBMPEAMI@Z 0000000180049474     biquad_lpf_3.o
 0004:00000480       $pdata$8$?loc_process_fx_replace@@YAXPEAUst_plugin_voice_s@@HPEBMPEAMI@Z 0000000180049480     biquad_lpf_3.o
 0004:0000048c       $pdata$9$?loc_process_fx_replace@@YAXPEAUst_plugin_voice_s@@HPEBMPEAMI@Z 000000018004948c     biquad_lpf_3.o
 0004:00000498       $pdata$?loc_shared_new@@YAPEAUst_plugin_shared_s@@PEAUst_plugin_info_s@@@Z 0000000180049498     biquad_lpf_3.o
 0004:000004a4       $pdata$?loc_voice_new@@YAPEAUst_plugin_voice_s@@PEAUst_plugin_info_s@@@Z 00000001800494a4     biquad_lpf_3.o
 0004:000004b0       $pdata$biquad_lpf_3_init   00000001800494b0     biquad_lpf_3.o
 0004:000004bc       $pdata$?loc_prepare_block@@YAXPEAUst_plugin_voice_s@@IMMMM@Z 00000001800494bc     biquad_lpf_4.o
 0004:000004c8       $pdata$?loc_process_fx_replace@@YAXPEAUst_plugin_voice_s@@HPEBMPEAMI@Z 00000001800494c8     biquad_lpf_4.o
 0004:000004d4       $pdata$9$?loc_process_fx_replace@@YAXPEAUst_plugin_voice_s@@HPEBMPEAMI@Z 00000001800494d4     biquad_lpf_4.o
 0004:000004e0       $pdata$10$?loc_process_fx_replace@@YAXPEAUst_plugin_voice_s@@HPEBMPEAMI@Z 00000001800494e0     biquad_lpf_4.o
 0004:000004ec       $pdata$?loc_shared_new@@YAPEAUst_plugin_shared_s@@PEAUst_plugin_info_s@@@Z 00000001800494ec     biquad_lpf_4.o
 0004:000004f8       $pdata$?loc_voice_new@@YAPEAUst_plugin_voice_s@@PEAUst_plugin_info_s@@@Z 00000001800494f8     biquad_lpf_4.o
 0004:00000504       $pdata$biquad_lpf_4_init   0000000180049504     biquad_lpf_4.o
 0004:00000510       $pdata$?loc_prepare_block@@YAXPEAUst_plugin_voice_s@@IMMMM@Z 0000000180049510     biquad_hpf_1.o
 0004:0000051c       $pdata$?loc_process_fx_replace@@YAXPEAUst_plugin_voice_s@@HPEBMPEAMI@Z 000000018004951c     biquad_hpf_1.o
 0004:00000528       $pdata$7$?loc_process_fx_replace@@YAXPEAUst_plugin_voice_s@@HPEBMPEAMI@Z 0000000180049528     biquad_hpf_1.o
 0004:00000534       $pdata$8$?loc_process_fx_replace@@YAXPEAUst_plugin_voice_s@@HPEBMPEAMI@Z 0000000180049534     biquad_hpf_1.o
 0004:00000540       $pdata$?loc_shared_new@@YAPEAUst_plugin_shared_s@@PEAUst_plugin_info_s@@@Z 0000000180049540     biquad_hpf_1.o
 0004:0000054c       $pdata$?loc_voice_new@@YAPEAUst_plugin_voice_s@@PEAUst_plugin_info_s@@@Z 000000018004954c     biquad_hpf_1.o
 0004:00000558       $pdata$biquad_hpf_1_init   0000000180049558     biquad_hpf_1.o
 0004:00000564       $pdata$?loc_prepare_block@@YAXPEAUst_plugin_voice_s@@IMMMM@Z 0000000180049564     biquad_hpf_2.o
 0004:00000570       $pdata$?loc_process_fx_replace@@YAXPEAUst_plugin_voice_s@@HPEBMPEAMI@Z 0000000180049570     biquad_hpf_2.o
 0004:0000057c       $pdata$8$?loc_process_fx_replace@@YAXPEAUst_plugin_voice_s@@HPEBMPEAMI@Z 000000018004957c     biquad_hpf_2.o
 0004:00000588       $pdata$9$?loc_process_fx_replace@@YAXPEAUst_plugin_voice_s@@HPEBMPEAMI@Z 0000000180049588     biquad_hpf_2.o
 0004:00000594       $pdata$?loc_shared_new@@YAPEAUst_plugin_shared_s@@PEAUst_plugin_info_s@@@Z 0000000180049594     biquad_hpf_2.o
 0004:000005a0       $pdata$?loc_voice_new@@YAPEAUst_plugin_voice_s@@PEAUst_plugin_info_s@@@Z 00000001800495a0     biquad_hpf_2.o
 0004:000005ac       $pdata$biquad_hpf_2_init   00000001800495ac     biquad_hpf_2.o
 0004:000005b8       $pdata$?loc_prepare_block@@YAXPEAUst_plugin_voice_s@@IMMMM@Z 00000001800495b8     biquad_hpf_3.o
 0004:000005c4       $pdata$?loc_process_fx_replace@@YAXPEAUst_plugin_voice_s@@HPEBMPEAMI@Z 00000001800495c4     biquad_hpf_3.o
 0004:000005d0       $pdata$8$?loc_process_fx_replace@@YAXPEAUst_plugin_voice_s@@HPEBMPEAMI@Z 00000001800495d0     biquad_hpf_3.o
 0004:000005dc       $pdata$9$?loc_process_fx_replace@@YAXPEAUst_plugin_voice_s@@HPEBMPEAMI@Z 00000001800495dc     biquad_hpf_3.o
 0004:000005e8       $pdata$?loc_shared_new@@YAPEAUst_plugin_shared_s@@PEAUst_plugin_info_s@@@Z 00000001800495e8     biquad_hpf_3.o
 0004:000005f4       $pdata$?loc_voice_new@@YAPEAUst_plugin_voice_s@@PEAUst_plugin_info_s@@@Z 00000001800495f4     biquad_hpf_3.o
 0004:00000600       $pdata$biquad_hpf_3_init   0000000180049600     biquad_hpf_3.o
 0004:0000060c       $pdata$?loc_prepare_block@@YAXPEAUst_plugin_voice_s@@IMMMM@Z 000000018004960c     biquad_hpf_4.o
 0004:00000618       $pdata$?loc_process_fx_replace@@YAXPEAUst_plugin_voice_s@@HPEBMPEAMI@Z 0000000180049618     biquad_hpf_4.o
 0004:00000624       $pdata$9$?loc_process_fx_replace@@YAXPEAUst_plugin_voice_s@@HPEBMPEAMI@Z 0000000180049624     biquad_hpf_4.o
 0004:00000630       $pdata$10$?loc_process_fx_replace@@YAXPEAUst_plugin_voice_s@@HPEBMPEAMI@Z 0000000180049630     biquad_hpf_4.o
 0004:0000063c       $pdata$?loc_shared_new@@YAPEAUst_plugin_shared_s@@PEAUst_plugin_info_s@@@Z 000000018004963c     biquad_hpf_4.o
 0004:00000648       $pdata$?loc_voice_new@@YAPEAUst_plugin_voice_s@@PEAUst_plugin_info_s@@@Z 0000000180049648     biquad_hpf_4.o
 0004:00000654       $pdata$biquad_hpf_4_init   0000000180049654     biquad_hpf_4.o
 0004:00000660       $pdata$?loc_prepare_block@@YAXPEAUst_plugin_voice_s@@IMMMM@Z 0000000180049660     biquad_bpf_1.o
 0004:0000066c       $pdata$?loc_process_fx_replace@@YAXPEAUst_plugin_voice_s@@HPEBMPEAMI@Z 000000018004966c     biquad_bpf_1.o
 0004:00000678       $pdata$7$?loc_process_fx_replace@@YAXPEAUst_plugin_voice_s@@HPEBMPEAMI@Z 0000000180049678     biquad_bpf_1.o
 0004:00000684       $pdata$8$?loc_process_fx_replace@@YAXPEAUst_plugin_voice_s@@HPEBMPEAMI@Z 0000000180049684     biquad_bpf_1.o
 0004:00000690       $pdata$?loc_shared_new@@YAPEAUst_plugin_shared_s@@PEAUst_plugin_info_s@@@Z 0000000180049690     biquad_bpf_1.o
 0004:0000069c       $pdata$?loc_voice_new@@YAPEAUst_plugin_voice_s@@PEAUst_plugin_info_s@@@Z 000000018004969c     biquad_bpf_1.o
 0004:000006a8       $pdata$biquad_bpf_1_init   00000001800496a8     biquad_bpf_1.o
 0004:000006b4       $pdata$?loc_prepare_block@@YAXPEAUst_plugin_voice_s@@IMMMM@Z 00000001800496b4     biquad_bpf_2.o
 0004:000006c0       $pdata$?loc_process_fx_replace@@YAXPEAUst_plugin_voice_s@@HPEBMPEAMI@Z 00000001800496c0     biquad_bpf_2.o
 0004:000006cc       $pdata$9$?loc_process_fx_replace@@YAXPEAUst_plugin_voice_s@@HPEBMPEAMI@Z 00000001800496cc     biquad_bpf_2.o
 0004:000006d8       $pdata$10$?loc_process_fx_replace@@YAXPEAUst_plugin_voice_s@@HPEBMPEAMI@Z 00000001800496d8     biquad_bpf_2.o
 0004:000006e4       $pdata$?loc_shared_new@@YAPEAUst_plugin_shared_s@@PEAUst_plugin_info_s@@@Z 00000001800496e4     biquad_bpf_2.o
 0004:000006f0       $pdata$?loc_voice_new@@YAPEAUst_plugin_voice_s@@PEAUst_plugin_info_s@@@Z 00000001800496f0     biquad_bpf_2.o
 0004:000006fc       $pdata$biquad_bpf_2_init   00000001800496fc     biquad_bpf_2.o
 0004:00000708       $pdata$?loc_prepare_block@@YAXPEAUst_plugin_voice_s@@IMMMM@Z 0000000180049708     biquad_bpf_3.o
 0004:00000714       $pdata$?loc_process_fx_replace@@YAXPEAUst_plugin_voice_s@@HPEBMPEAMI@Z 0000000180049714     biquad_bpf_3.o
 0004:00000720       $pdata$9$?loc_process_fx_replace@@YAXPEAUst_plugin_voice_s@@HPEBMPEAMI@Z 0000000180049720     biquad_bpf_3.o
 0004:0000072c       $pdata$10$?loc_process_fx_replace@@YAXPEAUst_plugin_voice_s@@HPEBMPEAMI@Z 000000018004972c     biquad_bpf_3.o
 0004:00000738       $pdata$?loc_shared_new@@YAPEAUst_plugin_shared_s@@PEAUst_plugin_info_s@@@Z 0000000180049738     biquad_bpf_3.o
 0004:00000744       $pdata$?loc_voice_new@@YAPEAUst_plugin_voice_s@@PEAUst_plugin_info_s@@@Z 0000000180049744     biquad_bpf_3.o
 0004:00000750       $pdata$biquad_bpf_3_init   0000000180049750     biquad_bpf_3.o
 0004:0000075c       $pdata$?loc_prepare_block@@YAXPEAUst_plugin_voice_s@@IMMMM@Z 000000018004975c     biquad_bpf_4.o
 0004:00000768       $pdata$?loc_process_fx_replace@@YAXPEAUst_plugin_voice_s@@HPEBMPEAMI@Z 0000000180049768     biquad_bpf_4.o
 0004:00000774       $pdata$9$?loc_process_fx_replace@@YAXPEAUst_plugin_voice_s@@HPEBMPEAMI@Z 0000000180049774     biquad_bpf_4.o
 0004:00000780       $pdata$10$?loc_process_fx_replace@@YAXPEAUst_plugin_voice_s@@HPEBMPEAMI@Z 0000000180049780     biquad_bpf_4.o
 0004:0000078c       $pdata$?loc_shared_new@@YAPEAUst_plugin_shared_s@@PEAUst_plugin_info_s@@@Z 000000018004978c     biquad_bpf_4.o
 0004:00000798       $pdata$?loc_voice_new@@YAPEAUst_plugin_voice_s@@PEAUst_plugin_info_s@@@Z 0000000180049798     biquad_bpf_4.o
 0004:000007a4       $pdata$biquad_bpf_4_init   00000001800497a4     biquad_bpf_4.o
 0004:000007b0       $pdata$?loc_prepare_block@@YAXPEAUst_plugin_voice_s@@IMMMM@Z 00000001800497b0     biquad_brf_1.o
 0004:000007bc       $pdata$0$?loc_prepare_block@@YAXPEAUst_plugin_voice_s@@IMMMM@Z 00000001800497bc     biquad_brf_1.o
 0004:000007c8       $pdata$1$?loc_prepare_block@@YAXPEAUst_plugin_voice_s@@IMMMM@Z 00000001800497c8     biquad_brf_1.o
 0004:000007d4       $pdata$?loc_process_fx_replace@@YAXPEAUst_plugin_voice_s@@HPEBMPEAMI@Z 00000001800497d4     biquad_brf_1.o
 0004:000007e0       $pdata$7$?loc_process_fx_replace@@YAXPEAUst_plugin_voice_s@@HPEBMPEAMI@Z 00000001800497e0     biquad_brf_1.o
 0004:000007ec       $pdata$8$?loc_process_fx_replace@@YAXPEAUst_plugin_voice_s@@HPEBMPEAMI@Z 00000001800497ec     biquad_brf_1.o
 0004:000007f8       $pdata$?loc_shared_new@@YAPEAUst_plugin_shared_s@@PEAUst_plugin_info_s@@@Z 00000001800497f8     biquad_brf_1.o
 0004:00000804       $pdata$?loc_voice_new@@YAPEAUst_plugin_voice_s@@PEAUst_plugin_info_s@@@Z 0000000180049804     biquad_brf_1.o
 0004:00000810       $pdata$biquad_brf_1_init   0000000180049810     biquad_brf_1.o
 0004:0000081c       $pdata$?loc_prepare_block@@YAXPEAUst_plugin_voice_s@@IMMMM@Z 000000018004981c     biquad_brf_2.o
 0004:00000828       $pdata$?loc_process_fx_replace@@YAXPEAUst_plugin_voice_s@@HPEBMPEAMI@Z 0000000180049828     biquad_brf_2.o
 0004:00000834       $pdata$8$?loc_process_fx_replace@@YAXPEAUst_plugin_voice_s@@HPEBMPEAMI@Z 0000000180049834     biquad_brf_2.o
 0004:00000840       $pdata$9$?loc_process_fx_replace@@YAXPEAUst_plugin_voice_s@@HPEBMPEAMI@Z 0000000180049840     biquad_brf_2.o
 0004:0000084c       $pdata$?loc_shared_new@@YAPEAUst_plugin_shared_s@@PEAUst_plugin_info_s@@@Z 000000018004984c     biquad_brf_2.o
 0004:00000858       $pdata$?loc_voice_new@@YAPEAUst_plugin_voice_s@@PEAUst_plugin_info_s@@@Z 0000000180049858     biquad_brf_2.o
 0004:00000864       $pdata$biquad_brf_2_init   0000000180049864     biquad_brf_2.o
 0004:00000870       $pdata$?loc_prepare_block@@YAXPEAUst_plugin_voice_s@@IMMMM@Z 0000000180049870     biquad_brf_3.o
 0004:0000087c       $pdata$?loc_process_fx_replace@@YAXPEAUst_plugin_voice_s@@HPEBMPEAMI@Z 000000018004987c     biquad_brf_3.o
 0004:00000888       $pdata$8$?loc_process_fx_replace@@YAXPEAUst_plugin_voice_s@@HPEBMPEAMI@Z 0000000180049888     biquad_brf_3.o
 0004:00000894       $pdata$9$?loc_process_fx_replace@@YAXPEAUst_plugin_voice_s@@HPEBMPEAMI@Z 0000000180049894     biquad_brf_3.o
 0004:000008a0       $pdata$?loc_shared_new@@YAPEAUst_plugin_shared_s@@PEAUst_plugin_info_s@@@Z 00000001800498a0     biquad_brf_3.o
 0004:000008ac       $pdata$?loc_voice_new@@YAPEAUst_plugin_voice_s@@PEAUst_plugin_info_s@@@Z 00000001800498ac     biquad_brf_3.o
 0004:000008b8       $pdata$biquad_brf_3_init   00000001800498b8     biquad_brf_3.o
 0004:000008c4       $pdata$?loc_prepare_block@@YAXPEAUst_plugin_voice_s@@IMMMM@Z 00000001800498c4     biquad_brf_4.o
 0004:000008d0       $pdata$?loc_process_fx_replace@@YAXPEAUst_plugin_voice_s@@HPEBMPEAMI@Z 00000001800498d0     biquad_brf_4.o
 0004:000008dc       $pdata$9$?loc_process_fx_replace@@YAXPEAUst_plugin_voice_s@@HPEBMPEAMI@Z 00000001800498dc     biquad_brf_4.o
 0004:000008e8       $pdata$10$?loc_process_fx_replace@@YAXPEAUst_plugin_voice_s@@HPEBMPEAMI@Z 00000001800498e8     biquad_brf_4.o
 0004:000008f4       $pdata$?loc_shared_new@@YAPEAUst_plugin_shared_s@@PEAUst_plugin_info_s@@@Z 00000001800498f4     biquad_brf_4.o
 0004:00000900       $pdata$?loc_voice_new@@YAPEAUst_plugin_voice_s@@PEAUst_plugin_info_s@@@Z 0000000180049900     biquad_brf_4.o
 0004:0000090c       $pdata$biquad_brf_4_init   000000018004990c     biquad_brf_4.o
 0004:00000918       $pdata$?loc_prepare_block@@YAXPEAUst_plugin_voice_s@@IMMMM@Z 0000000180049918     biquad_peq_1.o
 0004:00000924       $pdata$?loc_process_fx_replace@@YAXPEAUst_plugin_voice_s@@HPEBMPEAMI@Z 0000000180049924     biquad_peq_1.o
 0004:00000930       $pdata$7$?loc_process_fx_replace@@YAXPEAUst_plugin_voice_s@@HPEBMPEAMI@Z 0000000180049930     biquad_peq_1.o
 0004:0000093c       $pdata$8$?loc_process_fx_replace@@YAXPEAUst_plugin_voice_s@@HPEBMPEAMI@Z 000000018004993c     biquad_peq_1.o
 0004:00000948       $pdata$?loc_shared_new@@YAPEAUst_plugin_shared_s@@PEAUst_plugin_info_s@@@Z 0000000180049948     biquad_peq_1.o
 0004:00000954       $pdata$?loc_voice_new@@YAPEAUst_plugin_voice_s@@PEAUst_plugin_info_s@@@Z 0000000180049954     biquad_peq_1.o
 0004:00000960       $pdata$biquad_peq_1_init   0000000180049960     biquad_peq_1.o
 0004:0000096c       $pdata$?loc_prepare_block@@YAXPEAUst_plugin_voice_s@@IMMMM@Z 000000018004996c     biquad_peq_2.o
 0004:00000978       $pdata$?loc_process_fx_replace@@YAXPEAUst_plugin_voice_s@@HPEBMPEAMI@Z 0000000180049978     biquad_peq_2.o
 0004:00000984       $pdata$10$?loc_process_fx_replace@@YAXPEAUst_plugin_voice_s@@HPEBMPEAMI@Z 0000000180049984     biquad_peq_2.o
 0004:00000990       $pdata$11$?loc_process_fx_replace@@YAXPEAUst_plugin_voice_s@@HPEBMPEAMI@Z 0000000180049990     biquad_peq_2.o
 0004:0000099c       $pdata$?loc_shared_new@@YAPEAUst_plugin_shared_s@@PEAUst_plugin_info_s@@@Z 000000018004999c     biquad_peq_2.o
 0004:000009a8       $pdata$?loc_voice_new@@YAPEAUst_plugin_voice_s@@PEAUst_plugin_info_s@@@Z 00000001800499a8     biquad_peq_2.o
 0004:000009b4       $pdata$biquad_peq_2_init   00000001800499b4     biquad_peq_2.o
 0004:000009c0       $pdata$?loc_prepare_block@@YAXPEAUst_plugin_voice_s@@IMMMM@Z 00000001800499c0     biquad_peq_3.o
 0004:000009cc       $pdata$?loc_process_fx_replace@@YAXPEAUst_plugin_voice_s@@HPEBMPEAMI@Z 00000001800499cc     biquad_peq_3.o
 0004:000009d8       $pdata$10$?loc_process_fx_replace@@YAXPEAUst_plugin_voice_s@@HPEBMPEAMI@Z 00000001800499d8     biquad_peq_3.o
 0004:000009e4       $pdata$11$?loc_process_fx_replace@@YAXPEAUst_plugin_voice_s@@HPEBMPEAMI@Z 00000001800499e4     biquad_peq_3.o
 0004:000009f0       $pdata$?loc_shared_new@@YAPEAUst_plugin_shared_s@@PEAUst_plugin_info_s@@@Z 00000001800499f0     biquad_peq_3.o
 0004:000009fc       $pdata$?loc_voice_new@@YAPEAUst_plugin_voice_s@@PEAUst_plugin_info_s@@@Z 00000001800499fc     biquad_peq_3.o
 0004:00000a08       $pdata$biquad_peq_3_init   0000000180049a08     biquad_peq_3.o
 0004:00000a14       $pdata$?loc_prepare_block@@YAXPEAUst_plugin_voice_s@@IMMMM@Z 0000000180049a14     biquad_peq_4.o
 0004:00000a20       $pdata$?loc_process_fx_replace@@YAXPEAUst_plugin_voice_s@@HPEBMPEAMI@Z 0000000180049a20     biquad_peq_4.o
 0004:00000a2c       $pdata$12$?loc_process_fx_replace@@YAXPEAUst_plugin_voice_s@@HPEBMPEAMI@Z 0000000180049a2c     biquad_peq_4.o
 0004:00000a38       $pdata$13$?loc_process_fx_replace@@YAXPEAUst_plugin_voice_s@@HPEBMPEAMI@Z 0000000180049a38     biquad_peq_4.o
 0004:00000a44       $pdata$?loc_shared_new@@YAPEAUst_plugin_shared_s@@PEAUst_plugin_info_s@@@Z 0000000180049a44     biquad_peq_4.o
 0004:00000a50       $pdata$?loc_voice_new@@YAPEAUst_plugin_voice_s@@PEAUst_plugin_info_s@@@Z 0000000180049a50     biquad_peq_4.o
 0004:00000a5c       $pdata$biquad_peq_4_init   0000000180049a5c     biquad_peq_4.o
 0004:00000a68       $pdata$?loc_prepare_block@@YAXPEAUst_plugin_voice_s@@IMMMM@Z 0000000180049a68     biquad_lsh_1.o
 0004:00000a74       $pdata$?loc_process_fx_replace@@YAXPEAUst_plugin_voice_s@@HPEBMPEAMI@Z 0000000180049a74     biquad_lsh_1.o
 0004:00000a80       $pdata$7$?loc_process_fx_replace@@YAXPEAUst_plugin_voice_s@@HPEBMPEAMI@Z 0000000180049a80     biquad_lsh_1.o
 0004:00000a8c       $pdata$8$?loc_process_fx_replace@@YAXPEAUst_plugin_voice_s@@HPEBMPEAMI@Z 0000000180049a8c     biquad_lsh_1.o
 0004:00000a98       $pdata$?loc_shared_new@@YAPEAUst_plugin_shared_s@@PEAUst_plugin_info_s@@@Z 0000000180049a98     biquad_lsh_1.o
 0004:00000aa4       $pdata$?loc_voice_new@@YAPEAUst_plugin_voice_s@@PEAUst_plugin_info_s@@@Z 0000000180049aa4     biquad_lsh_1.o
 0004:00000ab0       $pdata$biquad_lsh_1_init   0000000180049ab0     biquad_lsh_1.o
 0004:00000abc       $pdata$?loc_prepare_block@@YAXPEAUst_plugin_voice_s@@IMMMM@Z 0000000180049abc     biquad_lsh_2.o
 0004:00000ac8       $pdata$?loc_process_fx_replace@@YAXPEAUst_plugin_voice_s@@HPEBMPEAMI@Z 0000000180049ac8     biquad_lsh_2.o
 0004:00000ad4       $pdata$10$?loc_process_fx_replace@@YAXPEAUst_plugin_voice_s@@HPEBMPEAMI@Z 0000000180049ad4     biquad_lsh_2.o
 0004:00000ae0       $pdata$11$?loc_process_fx_replace@@YAXPEAUst_plugin_voice_s@@HPEBMPEAMI@Z 0000000180049ae0     biquad_lsh_2.o
 0004:00000aec       $pdata$?loc_shared_new@@YAPEAUst_plugin_shared_s@@PEAUst_plugin_info_s@@@Z 0000000180049aec     biquad_lsh_2.o
 0004:00000af8       $pdata$?loc_voice_new@@YAPEAUst_plugin_voice_s@@PEAUst_plugin_info_s@@@Z 0000000180049af8     biquad_lsh_2.o
 0004:00000b04       $pdata$biquad_lsh_2_init   0000000180049b04     biquad_lsh_2.o
 0004:00000b10       $pdata$?loc_prepare_block@@YAXPEAUst_plugin_voice_s@@IMMMM@Z 0000000180049b10     biquad_lsh_3.o
 0004:00000b1c       $pdata$?loc_process_fx_replace@@YAXPEAUst_plugin_voice_s@@HPEBMPEAMI@Z 0000000180049b1c     biquad_lsh_3.o
 0004:00000b28       $pdata$10$?loc_process_fx_replace@@YAXPEAUst_plugin_voice_s@@HPEBMPEAMI@Z 0000000180049b28     biquad_lsh_3.o
 0004:00000b34       $pdata$11$?loc_process_fx_replace@@YAXPEAUst_plugin_voice_s@@HPEBMPEAMI@Z 0000000180049b34     biquad_lsh_3.o
 0004:00000b40       $pdata$?loc_shared_new@@YAPEAUst_plugin_shared_s@@PEAUst_plugin_info_s@@@Z 0000000180049b40     biquad_lsh_3.o
 0004:00000b4c       $pdata$?loc_voice_new@@YAPEAUst_plugin_voice_s@@PEAUst_plugin_info_s@@@Z 0000000180049b4c     biquad_lsh_3.o
 0004:00000b58       $pdata$biquad_lsh_3_init   0000000180049b58     biquad_lsh_3.o
 0004:00000b64       $pdata$?loc_prepare_block@@YAXPEAUst_plugin_voice_s@@IMMMM@Z 0000000180049b64     biquad_lsh_4.o
 0004:00000b70       $pdata$?loc_process_fx_replace@@YAXPEAUst_plugin_voice_s@@HPEBMPEAMI@Z 0000000180049b70     biquad_lsh_4.o
 0004:00000b7c       $pdata$12$?loc_process_fx_replace@@YAXPEAUst_plugin_voice_s@@HPEBMPEAMI@Z 0000000180049b7c     biquad_lsh_4.o
 0004:00000b88       $pdata$13$?loc_process_fx_replace@@YAXPEAUst_plugin_voice_s@@HPEBMPEAMI@Z 0000000180049b88     biquad_lsh_4.o
 0004:00000b94       $pdata$?loc_shared_new@@YAPEAUst_plugin_shared_s@@PEAUst_plugin_info_s@@@Z 0000000180049b94     biquad_lsh_4.o
 0004:00000ba0       $pdata$?loc_voice_new@@YAPEAUst_plugin_voice_s@@PEAUst_plugin_info_s@@@Z 0000000180049ba0     biquad_lsh_4.o
 0004:00000bac       $pdata$biquad_lsh_4_init   0000000180049bac     biquad_lsh_4.o
 0004:00000bb8       $pdata$?loc_prepare_block@@YAXPEAUst_plugin_voice_s@@IMMMM@Z 0000000180049bb8     biquad_hsh_1.o
 0004:00000bc4       $pdata$?loc_process_fx_replace@@YAXPEAUst_plugin_voice_s@@HPEBMPEAMI@Z 0000000180049bc4     biquad_hsh_1.o
 0004:00000bd0       $pdata$7$?loc_process_fx_replace@@YAXPEAUst_plugin_voice_s@@HPEBMPEAMI@Z 0000000180049bd0     biquad_hsh_1.o
 0004:00000bdc       $pdata$8$?loc_process_fx_replace@@YAXPEAUst_plugin_voice_s@@HPEBMPEAMI@Z 0000000180049bdc     biquad_hsh_1.o
 0004:00000be8       $pdata$?loc_shared_new@@YAPEAUst_plugin_shared_s@@PEAUst_plugin_info_s@@@Z 0000000180049be8     biquad_hsh_1.o
 0004:00000bf4       $pdata$?loc_voice_new@@YAPEAUst_plugin_voice_s@@PEAUst_plugin_info_s@@@Z 0000000180049bf4     biquad_hsh_1.o
 0004:00000c00       $pdata$biquad_hsh_1_init   0000000180049c00     biquad_hsh_1.o
 0004:00000c0c       $pdata$?loc_prepare_block@@YAXPEAUst_plugin_voice_s@@IMMMM@Z 0000000180049c0c     biquad_hsh_2.o
 0004:00000c18       $pdata$?loc_process_fx_replace@@YAXPEAUst_plugin_voice_s@@HPEBMPEAMI@Z 0000000180049c18     biquad_hsh_2.o
 0004:00000c24       $pdata$10$?loc_process_fx_replace@@YAXPEAUst_plugin_voice_s@@HPEBMPEAMI@Z 0000000180049c24     biquad_hsh_2.o
 0004:00000c30       $pdata$11$?loc_process_fx_replace@@YAXPEAUst_plugin_voice_s@@HPEBMPEAMI@Z 0000000180049c30     biquad_hsh_2.o
 0004:00000c3c       $pdata$?loc_shared_new@@YAPEAUst_plugin_shared_s@@PEAUst_plugin_info_s@@@Z 0000000180049c3c     biquad_hsh_2.o
 0004:00000c48       $pdata$?loc_voice_new@@YAPEAUst_plugin_voice_s@@PEAUst_plugin_info_s@@@Z 0000000180049c48     biquad_hsh_2.o
 0004:00000c54       $pdata$biquad_hsh_2_init   0000000180049c54     biquad_hsh_2.o
 0004:00000c60       $pdata$?loc_prepare_block@@YAXPEAUst_plugin_voice_s@@IMMMM@Z 0000000180049c60     biquad_hsh_3.o
 0004:00000c6c       $pdata$?loc_process_fx_replace@@YAXPEAUst_plugin_voice_s@@HPEBMPEAMI@Z 0000000180049c6c     biquad_hsh_3.o
 0004:00000c78       $pdata$10$?loc_process_fx_replace@@YAXPEAUst_plugin_voice_s@@HPEBMPEAMI@Z 0000000180049c78     biquad_hsh_3.o
 0004:00000c84       $pdata$11$?loc_process_fx_replace@@YAXPEAUst_plugin_voice_s@@HPEBMPEAMI@Z 0000000180049c84     biquad_hsh_3.o
 0004:00000c90       $pdata$?loc_shared_new@@YAPEAUst_plugin_shared_s@@PEAUst_plugin_info_s@@@Z 0000000180049c90     biquad_hsh_3.o
 0004:00000c9c       $pdata$?loc_voice_new@@YAPEAUst_plugin_voice_s@@PEAUst_plugin_info_s@@@Z 0000000180049c9c     biquad_hsh_3.o
 0004:00000ca8       $pdata$biquad_hsh_3_init   0000000180049ca8     biquad_hsh_3.o
 0004:00000cb4       $pdata$?loc_prepare_block@@YAXPEAUst_plugin_voice_s@@IMMMM@Z 0000000180049cb4     biquad_hsh_4.o
 0004:00000cc0       $pdata$?loc_process_fx_replace@@YAXPEAUst_plugin_voice_s@@HPEBMPEAMI@Z 0000000180049cc0     biquad_hsh_4.o
 0004:00000ccc       $pdata$12$?loc_process_fx_replace@@YAXPEAUst_plugin_voice_s@@HPEBMPEAMI@Z 0000000180049ccc     biquad_hsh_4.o
 0004:00000cd8       $pdata$13$?loc_process_fx_replace@@YAXPEAUst_plugin_voice_s@@HPEBMPEAMI@Z 0000000180049cd8     biquad_hsh_4.o
 0004:00000ce4       $pdata$?loc_shared_new@@YAPEAUst_plugin_shared_s@@PEAUst_plugin_info_s@@@Z 0000000180049ce4     biquad_hsh_4.o
 0004:00000cf0       $pdata$?loc_voice_new@@YAPEAUst_plugin_voice_s@@PEAUst_plugin_info_s@@@Z 0000000180049cf0     biquad_hsh_4.o
 0004:00000cfc       $pdata$biquad_hsh_4_init   0000000180049cfc     biquad_hsh_4.o
 0004:00000d08       $pdata$loc_prepare_block   0000000180049d08     amp.o
 0004:00000d14       $pdata$loc_process_fx_replace 0000000180049d14     amp.o
 0004:00000d20       $pdata$0$loc_process_fx_replace 0000000180049d20     amp.o
 0004:00000d2c       $pdata$1$loc_process_fx_replace 0000000180049d2c     amp.o
 0004:00000d38       $pdata$loc_shared_new      0000000180049d38     amp.o
 0004:00000d44       $pdata$loc_voice_new       0000000180049d44     amp.o
 0004:00000d50       $pdata$amp_init            0000000180049d50     amp.o
 0004:00000d5c       $pdata$loc_prepare_block   0000000180049d5c     pan.o
 0004:00000d68       $pdata$loc_process_fx_replace 0000000180049d68     pan.o
 0004:00000d74       $pdata$1$loc_process_fx_replace 0000000180049d74     pan.o
 0004:00000d80       $pdata$2$loc_process_fx_replace 0000000180049d80     pan.o
 0004:00000d8c       $pdata$loc_shared_new      0000000180049d8c     pan.o
 0004:00000d98       $pdata$loc_voice_new       0000000180049d98     pan.o
 0004:00000da4       $pdata$pan_init            0000000180049da4     pan.o
 0004:00000db0       $pdata$loc_prepare_block   0000000180049db0     ws_smoothstep.o
 0004:00000dbc       $pdata$loc_process_fx_replace 0000000180049dbc     ws_smoothstep.o
 0004:00000dc8       $pdata$1$loc_process_fx_replace 0000000180049dc8     ws_smoothstep.o
 0004:00000dd4       $pdata$2$loc_process_fx_replace 0000000180049dd4     ws_smoothstep.o
 0004:00000de0       $pdata$5$loc_process_fx_replace 0000000180049de0     ws_smoothstep.o
 0004:00000dec       $pdata$6$loc_process_fx_replace 0000000180049dec     ws_smoothstep.o
 0004:00000df8       $pdata$loc_shared_new      0000000180049df8     ws_smoothstep.o
 0004:00000e04       $pdata$loc_voice_new       0000000180049e04     ws_smoothstep.o
 0004:00000e10       $pdata$ws_smoothstep_init  0000000180049e10     ws_smoothstep.o
 0004:00000e1c       $pdata$?loc_note_on@@YAXPEAUst_plugin_voice_s@@HIIEMM@Z 0000000180049e1c     dly_1.o
 0004:00000e28       $pdata$0$?loc_note_on@@YAXPEAUst_plugin_voice_s@@HIIEMM@Z 0000000180049e28     dly_1.o
 0004:00000e34       $pdata$1$?loc_note_on@@YAXPEAUst_plugin_voice_s@@HIIEMM@Z 0000000180049e34     dly_1.o
 0004:00000e40       $pdata$?loc_prepare_block@@YAXPEAUst_plugin_voice_s@@IMMMM@Z 0000000180049e40     dly_1.o
 0004:00000e4c       $pdata$?loc_process_fx_replace@@YAXPEAUst_plugin_voice_s@@HPEBMPEAMI@Z 0000000180049e4c     dly_1.o
 0004:00000e58       $pdata$1$?loc_process_fx_replace@@YAXPEAUst_plugin_voice_s@@HPEBMPEAMI@Z 0000000180049e58     dly_1.o
 0004:00000e64       $pdata$2$?loc_process_fx_replace@@YAXPEAUst_plugin_voice_s@@HPEBMPEAMI@Z 0000000180049e64     dly_1.o
 0004:00000e70       $pdata$4$?loc_process_fx_replace@@YAXPEAUst_plugin_voice_s@@HPEBMPEAMI@Z 0000000180049e70     dly_1.o
 0004:00000e7c       $pdata$5$?loc_process_fx_replace@@YAXPEAUst_plugin_voice_s@@HPEBMPEAMI@Z 0000000180049e7c     dly_1.o
 0004:00000e88       $pdata$?loc_shared_new@@YAPEAUst_plugin_shared_s@@PEAUst_plugin_info_s@@@Z 0000000180049e88     dly_1.o
 0004:00000e94       $pdata$?loc_voice_new@@YAPEAUst_plugin_voice_s@@PEAUst_plugin_info_s@@@Z 0000000180049e94     dly_1.o
 0004:00000ea0       $pdata$dly_1_init          0000000180049ea0     dly_1.o
 0004:00000eac       $pdata$?loc_note_on@@YAXPEAUst_plugin_voice_s@@HIIEMM@Z 0000000180049eac     dly_2.o
 0004:00000eb8       $pdata$0$?loc_note_on@@YAXPEAUst_plugin_voice_s@@HIIEMM@Z 0000000180049eb8     dly_2.o
 0004:00000ec4       $pdata$1$?loc_note_on@@YAXPEAUst_plugin_voice_s@@HIIEMM@Z 0000000180049ec4     dly_2.o
 0004:00000ed0       $pdata$?loc_prepare_block@@YAXPEAUst_plugin_voice_s@@IMMMM@Z 0000000180049ed0     dly_2.o
 0004:00000edc       $pdata$?loc_process_fx_replace@@YAXPEAUst_plugin_voice_s@@HPEBMPEAMI@Z 0000000180049edc     dly_2.o
 0004:00000ee8       $pdata$2$?loc_process_fx_replace@@YAXPEAUst_plugin_voice_s@@HPEBMPEAMI@Z 0000000180049ee8     dly_2.o
 0004:00000ef4       $pdata$3$?loc_process_fx_replace@@YAXPEAUst_plugin_voice_s@@HPEBMPEAMI@Z 0000000180049ef4     dly_2.o
 0004:00000f00       $pdata$?loc_shared_new@@YAPEAUst_plugin_shared_s@@PEAUst_plugin_info_s@@@Z 0000000180049f00     dly_2.o
 0004:00000f0c       $pdata$?loc_voice_new@@YAPEAUst_plugin_voice_s@@PEAUst_plugin_info_s@@@Z 0000000180049f0c     dly_2.o
 0004:00000f18       $pdata$dly_2_init          0000000180049f18     dly_2.o
 0004:00000f24       $pdata$?calcFltCoeff@dly_flt_2_voice_s@@QEAAXAEAUStBiquadCoeff@@MMM@Z 0000000180049f24     dly_flt_2.o
 0004:00000f30       $pdata$?loc_note_on@@YAXPEAUst_plugin_voice_s@@HIIEMM@Z 0000000180049f30     dly_flt_2.o
 0004:00000f3c       $pdata$0$?loc_note_on@@YAXPEAUst_plugin_voice_s@@HIIEMM@Z 0000000180049f3c     dly_flt_2.o
 0004:00000f48       $pdata$1$?loc_note_on@@YAXPEAUst_plugin_voice_s@@HIIEMM@Z 0000000180049f48     dly_flt_2.o
 0004:00000f54       $pdata$?loc_prepare_block@@YAXPEAUst_plugin_voice_s@@IMMMM@Z 0000000180049f54     dly_flt_2.o
 0004:00000f60       $pdata$1$?loc_prepare_block@@YAXPEAUst_plugin_voice_s@@IMMMM@Z 0000000180049f60     dly_flt_2.o
 0004:00000f6c       $pdata$?loc_process_fx_replace@@YAXPEAUst_plugin_voice_s@@HPEBMPEAMI@Z 0000000180049f6c     dly_flt_2.o
 0004:00000f78       $pdata$9$?loc_process_fx_replace@@YAXPEAUst_plugin_voice_s@@HPEBMPEAMI@Z 0000000180049f78     dly_flt_2.o
 0004:00000f84       $pdata$10$?loc_process_fx_replace@@YAXPEAUst_plugin_voice_s@@HPEBMPEAMI@Z 0000000180049f84     dly_flt_2.o
 0004:00000f90       $pdata$?loc_shared_new@@YAPEAUst_plugin_shared_s@@PEAUst_plugin_info_s@@@Z 0000000180049f90     dly_flt_2.o
 0004:00000f9c       $pdata$?loc_voice_new@@YAPEAUst_plugin_voice_s@@PEAUst_plugin_info_s@@@Z 0000000180049f9c     dly_flt_2.o
 0004:00000fa8       $pdata$dly_flt_2_init      0000000180049fa8     dly_flt_2.o
 0004:00000fb4       $pdata$?loc_prepare_block@@YAXPEAUst_plugin_voice_s@@IMMMM@Z 0000000180049fb4     bitflipper.o
 0004:00000fc0       $pdata$?loc_process_fx_replace@@YAXPEAUst_plugin_voice_s@@HPEBMPEAMI@Z 0000000180049fc0     bitflipper.o
 0004:00000fcc       $pdata$3$?loc_process_fx_replace@@YAXPEAUst_plugin_voice_s@@HPEBMPEAMI@Z 0000000180049fcc     bitflipper.o
 0004:00000fd8       $pdata$7$?loc_process_fx_replace@@YAXPEAUst_plugin_voice_s@@HPEBMPEAMI@Z 0000000180049fd8     bitflipper.o
 0004:00000fe4       $pdata$8$?loc_process_fx_replace@@YAXPEAUst_plugin_voice_s@@HPEBMPEAMI@Z 0000000180049fe4     bitflipper.o
 0004:00000ff0       $pdata$9$?loc_process_fx_replace@@YAXPEAUst_plugin_voice_s@@HPEBMPEAMI@Z 0000000180049ff0     bitflipper.o
 0004:00000ffc       $pdata$?loc_shared_new@@YAPEAUst_plugin_shared_s@@PEAUst_plugin_info_s@@@Z 0000000180049ffc     bitflipper.o
 0004:00001008       $pdata$?loc_voice_new@@YAPEAUst_plugin_voice_s@@PEAUst_plugin_info_s@@@Z 000000018004a008     bitflipper.o
 0004:00001014       $pdata$bitflipper_init     000000018004a014     bitflipper.o
 0004:00001020       $pdata$?dllmain_crt_process_attach@@YAHQEAUHINSTANCE__@@QEAX@Z 000000018004a020     LIBCMT:dll_dllmain.obj
 0004:0000102c       $pdata$?fin$0@?0??dllmain_crt_process_attach@@YAHQEAUHINSTANCE__@@QEAX@Z@4HA 000000018004a02c     LIBCMT:dll_dllmain.obj
 0004:00001038       $pdata$?dllmain_crt_process_detach@@YAH_N@Z 000000018004a038     LIBCMT:dll_dllmain.obj
 0004:00001044       $pdata$?fin$0@?0??dllmain_crt_process_detach@@YAH_N@Z@4HA 000000018004a044     LIBCMT:dll_dllmain.obj
 0004:00001050       $pdata$?fin$1@?0??dllmain_crt_process_detach@@YAH_N@Z@4HA 000000018004a050     LIBCMT:dll_dllmain.obj
 0004:0000105c       $pdata$?dllmain_crt_dispatch@@YAHQEAUHINSTANCE__@@KQEAX@Z 000000018004a05c     LIBCMT:dll_dllmain.obj
 0004:00001068       $pdata$?dllmain_dispatch@@YAHQEAUHINSTANCE__@@KQEAX@Z 000000018004a068     LIBCMT:dll_dllmain.obj
 0004:00001074       $pdata$?filt$0@?0??dllmain_dispatch@@YAHQEAUHINSTANCE__@@KQEAX@Z@4HA 000000018004a074     LIBCMT:dll_dllmain.obj
 0004:00001080       $pdata$_DllMainCRTStartup  000000018004a080     LIBCMT:dll_dllmain.obj
 0004:0000108c       $pdata$__security_init_cookie 000000018004a08c     LIBCMT:gs_support.obj
 0004:00001098       $pdata$__scrt_initialize_default_local_stdio_options 000000018004a098     LIBCMT:default_local_stdio_options.obj
 0004:000010a4       $pdata$__scrt_is_nonwritable_in_current_image 000000018004a0a4     LIBCMT:utility.obj
 0004:000010b0       $pdata$__scrt_is_nonwritable_in_current_image$filt$0 000000018004a0b0     LIBCMT:utility.obj
 0004:000010bc       $pdata$__scrt_acquire_startup_lock 000000018004a0bc     LIBCMT:utility.obj
 0004:000010c8       $pdata$__scrt_release_startup_lock 000000018004a0c8     LIBCMT:utility.obj
 0004:000010d4       $pdata$__scrt_initialize_crt 000000018004a0d4     LIBCMT:utility.obj
 0004:000010e0       $pdata$__scrt_uninitialize_crt 000000018004a0e0     LIBCMT:utility.obj
 0004:000010ec       $pdata$__scrt_initialize_onexit_tables 000000018004a0ec     LIBCMT:utility.obj
 0004:000010f8       $pdata$__scrt_dllmain_exception_filter 000000018004a0f8     LIBCMT:utility.obj
 0004:00001104       $pdata$__scrt_dllmain_before_initialize_c 000000018004a104     LIBCMT:utility.obj
 0004:00001110       $pdata$__scrt_dllmain_after_initialize_c 000000018004a110     LIBCMT:utility.obj
 0004:0000111c       $pdata$__scrt_dllmain_uninitialize_c 000000018004a11c     LIBCMT:utility.obj
 0004:00001128       $pdata$__scrt_dllmain_uninitialize_critical 000000018004a128     LIBCMT:utility.obj
 0004:00001134       $pdata$__scrt_dllmain_crt_thread_attach 000000018004a134     LIBCMT:utility.obj
 0004:00001140       $pdata$__scrt_dllmain_crt_thread_detach 000000018004a140     LIBCMT:utility.obj
 0004:0000114c       $pdata$__scrt_fastfail     000000018004a14c     LIBCMT:utility_desktop.obj
 0004:00001158       $pdata$_RTC_Initialize     000000018004a158     LIBCMT:initsect.obj
 0004:00001164       $pdata$_RTC_Terminate      000000018004a164     LIBCMT:initsect.obj
 0004:00001170       $pdata$__isa_available_init 000000018004a170     LIBCMT:cpu_disp.obj
 0004:000011a0       $pdata$__C_specific_handler 000000018004a1a0     libvcruntime:riscchandler.obj
 0004:000011ac       $pdata$__std_type_info_destroy_list 000000018004a1ac     libvcruntime:std_type_info.obj
 0004:000011b8       $pdata$__vcrt_initialize   000000018004a1b8     libvcruntime:initialization.obj
 0004:000011c4       $pdata$__vcrt_uninitialize 000000018004a1c4     libvcruntime:initialization.obj
 0004:000011d0       $pdata$__vcrt_uninitialize_critical 000000018004a1d0     libvcruntime:initialization.obj
 0004:000011dc       $pdata$__vcrt_thread_attach 000000018004a1dc     libvcruntime:initialization.obj
 0004:000011e8       $pdata$__vcrt_thread_detach 000000018004a1e8     libvcruntime:initialization.obj
 0004:000011f4       $pdata$__DestructExceptionObject 000000018004a1f4     libvcruntime:ehhelpers.obj
 0004:00001200       $pdata$__DestructExceptionObject$filt$0 000000018004a200     libvcruntime:ehhelpers.obj
 0004:00001230       $pdata$__vcrt_initialize_ptd 000000018004a230     libvcruntime:per_thread_data.obj
 0004:0000123c       $pdata$__vcrt_uninitialize_ptd 000000018004a23c     libvcruntime:per_thread_data.obj
 0004:00001248       $pdata$__vcrt_getptd       000000018004a248     libvcruntime:per_thread_data.obj
 0004:00001254       $pdata$__vcrt_getptd_noexit 000000018004a254     libvcruntime:per_thread_data.obj
 0004:00001260       $pdata$__vcrt_freeptd      000000018004a260     libvcruntime:per_thread_data.obj
 0004:0000126c       $pdata$__vcrt_freefls      000000018004a26c     libvcruntime:per_thread_data.obj
 0004:00001278       $pdata$__vcrt_initialize_locks 000000018004a278     libvcruntime:locks.obj
 0004:00001284       $pdata$__vcrt_uninitialize_locks 000000018004a284     libvcruntime:locks.obj
 0004:000012a8       $pdata$__vcrt_FlsAlloc     000000018004a2a8     libvcruntime:winapi_downlevel.obj
 0004:000012b4       $pdata$__vcrt_FlsFree      000000018004a2b4     libvcruntime:winapi_downlevel.obj
 0004:000012c0       $pdata$__vcrt_FlsGetValue  000000018004a2c0     libvcruntime:winapi_downlevel.obj
 0004:000012cc       $pdata$__vcrt_FlsSetValue  000000018004a2cc     libvcruntime:winapi_downlevel.obj
 0004:000012d8       $pdata$__vcrt_InitializeCriticalSectionEx 000000018004a2d8     libvcruntime:winapi_downlevel.obj
 0004:000012e4       $pdata$?try_get_function@@YAPEAXW4function_id@?A0x5a6460af@@QEBDQEBW4module_id@2@2@Z 000000018004a2e4     libvcruntime:winapi_downlevel.obj
 0004:00001338       $pdata$tanhf               000000018004a338     libucrt:tanhf.obj
 0004:00001368       $pdata$sinh                000000018004a368     libucrt:sinh.obj
 0004:00001374       $pdata$splitexp            000000018004a374     libucrt:sinh.obj
 0004:0000138c       $pdata$sqrt                000000018004a38c     libucrt:sqrt.obj
 0004:000013b0       $pdata$_initterm           000000018004a3b0     libucrt:initterm.obj
 0004:000013bc       $pdata$_initterm_e         000000018004a3bc     libucrt:initterm.obj
 0004:000013c8       $pdata$_seh_filter_exe     000000018004a3c8     libucrt:exception_filter.obj
 0004:000013d4       $pdata$?try_cor_exit_process@@YAXI@Z 000000018004a3d4     libucrt:exit.obj
 0004:000013e0       $pdata$?exit_or_terminate_process@@YAXI@Z 000000018004a3e0     libucrt:exit.obj
 0004:000013ec       $pdata$?common_exit@@YAXHW4_crt_exit_cleanup_mode@@W4_crt_exit_return_mode@@@Z 000000018004a3ec     libucrt:exit.obj
 0004:000013f8       $pdata$??R<lambda_6e4b09c48022b2350581041d5f6b0c4c>@@QEBA@XZ 000000018004a3f8     libucrt:exit.obj
 0004:00001404       $pdata$?filt$0@?0???R<lambda_6e4b09c48022b2350581041d5f6b0c4c>@@QEBA@XZ@4HA 000000018004a404     libucrt:exit.obj
 0004:00001410       $pdata$??$?RV<lambda_d80eeec6fff315bfe5c115232f3240e3>@@AEAV<lambda_6e4b09c48022b2350581041d5f6b0c4c>@@V<lambda_2358e3775559c9db80273638284d5e45>@@@?$__crt_seh_guarded_call@X@@QEAAX$$QEAV<lambda_d80eeec6fff315bfe5c115232f3240e3>@@AEAV<lambda_6e4b09c48022b2350581041d5f6b0c4c>@@$$QEAV<lambda_2358e3775559c9db80273638284d5e45>@@@Z 000000018004a410     libucrt:exit.obj
 0004:0000141c       $pdata$?fin$0@?0???$?RV<lambda_0ae27a3a962d80f24befdcbee591983d>@@AEAV<lambda_8d0ee55de4b1038c4002e0adecdf1839>@@V<lambda_dc504788e8f1664fe9b84e20bfb512f2>@@@?$__crt_seh_guarded_call@X@@QEAAX$$QEAV<lambda_0ae27a3a962d80f24befdcbee591983d>@@AEAV<lambda_8d0ee55de4b1038c4002e0adecdf1839>@@$$QEAV<lambda_dc504788e8f1664fe9b84e20bfb512f2>@@@Z@4HA 000000018004a41c     libucrt:per_thread_data.obj
 0004:0000141c       $pdata$?fin$0@?0???$?RV<lambda_2d41944a1d46af3157314b8a01080d33>@@AEAV<lambda_8f455de75cd7d7f24b4096f044d8b9e6>@@V<lambda_aa500f224e6afead328df44964fe2772>@@@?$__crt_seh_guarded_call@X@@QEAAX$$QEAV<lambda_2d41944a1d46af3157314b8a01080d33>@@AEAV<lambda_8f455de75cd7d7f24b4096f044d8b9e6>@@$$QEAV<lambda_aa500f224e6afead328df44964fe2772>@@@Z@4HA 000000018004a41c     libucrt:per_thread_data.obj
 0004:0000141c       $pdata$?fin$0@?0???$?RV<lambda_aa87e3671a710a21b5dc78c0bdf72e11>@@AEAV<lambda_92619d2358a28f41a33ba319515a20b9>@@V<lambda_6992ecaafeb10aed2b74cb1fae11a551>@@@?$__crt_seh_guarded_call@X@@QEAAX$$QEAV<lambda_aa87e3671a710a21b5dc78c0bdf72e11>@@AEAV<lambda_92619d2358a28f41a33ba319515a20b9>@@$$QEAV<lambda_6992ecaafeb10aed2b74cb1fae11a551>@@@Z@4HA 000000018004a41c     libucrt:per_thread_data.obj
 0004:0000141c       $pdata$?fin$0@?0???$?RV<lambda_f2e299630e499de9f9a165e60fcd3db5>@@AEAV<lambda_2ae9d31cdba2644fcbeaf08da7c24588>@@V<lambda_40d01ff24d0e7b3814fdbdcee8eab3c7>@@@?$__crt_seh_guarded_call@X@@QEAAX$$QEAV<lambda_f2e299630e499de9f9a165e60fcd3db5>@@AEAV<lambda_2ae9d31cdba2644fcbeaf08da7c24588>@@$$QEAV<lambda_40d01ff24d0e7b3814fdbdcee8eab3c7>@@@Z@4HA 000000018004a41c     libucrt:per_thread_data.obj
 0004:0000141c       $pdata$?fin$0@?0???$?RV<lambda_efdfa57d1f175319df784efa44bb7b81>@@AEAV<lambda_5f0a4c1567f8adc6734073e5d1e1b35c>@@V<lambda_2e8a7d3640ea6ccb4c2413664c2db6fd>@@@?$__crt_seh_guarded_call@X@@QEAAX$$QEAV<lambda_efdfa57d1f175319df784efa44bb7b81>@@AEAV<lambda_5f0a4c1567f8adc6734073e5d1e1b35c>@@$$QEAV<lambda_2e8a7d3640ea6ccb4c2413664c2db6fd>@@@Z@4HA 000000018004a41c     libucrt:mbctype.obj
 0004:0000141c       $pdata$?fin$0@?0???$?RV<lambda_450d765d439847d4c735a33c368b5fc0>@@AEAV<lambda_44731a7d0e6d81c3e6aa82d741081786>@@V<lambda_601a2a7da3b7a96e9554ac7215c4b07c>@@@?$__crt_seh_guarded_call@P6AXH@Z@@QEAAP6AXH@Z$$QEAV<lambda_450d765d439847d4c735a33c368b5fc0>@@AEAV<lambda_44731a7d0e6d81c3e6aa82d741081786>@@$$QEAV<lambda_601a2a7da3b7a96e9554ac7215c4b07c>@@@Z@4HA 000000018004a41c     libucrt:signal.obj
 0004:0000141c       $pdata$?fin$0@?0???$?RV<lambda_d80eeec6fff315bfe5c115232f3240e3>@@AEAV<lambda_6e4b09c48022b2350581041d5f6b0c4c>@@V<lambda_2358e3775559c9db80273638284d5e45>@@@?$__crt_seh_guarded_call@X@@QEAAX$$QEAV<lambda_d80eeec6fff315bfe5c115232f3240e3>@@AEAV<lambda_6e4b09c48022b2350581041d5f6b0c4c>@@$$QEAV<lambda_2358e3775559c9db80273638284d5e45>@@@Z@4HA 000000018004a41c     libucrt:exit.obj
 0004:0000141c       $pdata$?fin$0@?0???$?RV<lambda_7777bce6b2f8c936911f934f8298dc43>@@AEAV<lambda_f03950bc5685219e0bcd2087efbe011e>@@V<lambda_3883c3dff614d5e0c5f61bb1ac94921c>@@@?$__crt_seh_guarded_call@H@@QEAAH$$QEAV<lambda_7777bce6b2f8c936911f934f8298dc43>@@AEAV<lambda_f03950bc5685219e0bcd2087efbe011e>@@$$QEAV<lambda_3883c3dff614d5e0c5f61bb1ac94921c>@@@Z@4HA 000000018004a41c     libucrt:onexit.obj
 0004:00001428       $pdata$_configure_narrow_argv 000000018004a428     libucrt:argv_parsing.obj
 0004:00001434       $pdata$__acrt_allocate_buffer_for_argv 000000018004a434     libucrt:argv_parsing.obj
 0004:00001440       $pdata$??$parse_command_line@D@@YAXPEADPEAPEAD0PEA_K2@Z 000000018004a440     libucrt:argv_parsing.obj
 0004:0000144c       $pdata$__dcrt_uninitialize_environments_nolock 000000018004a44c     libucrt:environment_initialization.obj
 0004:00001458       $pdata$??$common_initialize_environment_nolock@D@@YAHXZ 000000018004a458     libucrt:environment_initialization.obj
 0004:00001464       $pdata$??$uninitialize_environment_internal@D@@YAXAEAPEAPEAD@Z 000000018004a464     libucrt:environment_initialization.obj
 0004:00001470       $pdata$??$uninitialize_environment_internal@_W@@YAXAEAPEAPEA_W@Z 000000018004a470     libucrt:environment_initialization.obj
 0004:0000147c       $pdata$??$free_environment@D@@YAXQEAPEAD@Z 000000018004a47c     libucrt:environment_initialization.obj
 0004:0000147c       $pdata$??$free_environment@_W@@YAXQEAPEA_W@Z 000000018004a47c     libucrt:environment_initialization.obj
 0004:00001488       $pdata$??$create_environment@D@@YAQEAPEADQEAD@Z 000000018004a488     libucrt:environment_initialization.obj
 0004:00001494       $pdata$_execute_onexit_table 000000018004a494     libucrt:onexit.obj
 0004:000014a0       $pdata$??R<lambda_f03950bc5685219e0bcd2087efbe011e>@@QEBAHXZ 000000018004a4a0     libucrt:onexit.obj
 0004:000014ac       $pdata$??$?RV<lambda_7777bce6b2f8c936911f934f8298dc43>@@AEAV<lambda_f03950bc5685219e0bcd2087efbe011e>@@V<lambda_3883c3dff614d5e0c5f61bb1ac94921c>@@@?$__crt_seh_guarded_call@H@@QEAAH$$QEAV<lambda_7777bce6b2f8c936911f934f8298dc43>@@AEAV<lambda_f03950bc5685219e0bcd2087efbe011e>@@$$QEAV<lambda_3883c3dff614d5e0c5f61bb1ac94921c>@@@Z 000000018004a4ac     libucrt:onexit.obj
 0004:000014b8       $pdata$__acrt_uninitialize 000000018004a4b8     libucrt:initialization.obj
 0004:000014c4       $pdata$__acrt_uninitialize_critical 000000018004a4c4     libucrt:initialization.obj
 0004:000014d0       $pdata$__acrt_thread_attach 000000018004a4d0     libucrt:initialization.obj
 0004:000014dc       $pdata$__acrt_thread_detach 000000018004a4dc     libucrt:initialization.obj
 0004:000014e8       $pdata$initialize_c        000000018004a4e8     libucrt:initialization.obj
 0004:000014f4       $pdata$uninitialize_environment 000000018004a4f4     libucrt:initialization.obj
 0004:00001500       $pdata$initialize_pointers 000000018004a500     libucrt:initialization.obj
 0004:0000150c       $pdata$uninitialize_allocated_memory 000000018004a50c     libucrt:initialization.obj
 0004:00001518       $pdata$uninitialize_allocated_io_buffers 000000018004a518     libucrt:initialization.obj
 0004:00001524       $pdata$terminate           000000018004a524     libucrt:terminate.obj
 0004:00001530       $pdata$strcpy_s            000000018004a530     libucrt:strcpy_s.obj
 0004:0000153c       $pdata$abort               000000018004a53c     libucrt:abort.obj
 0004:00001548       $pdata$??0_LocaleUpdate@@QEAA@QEAU__crt_locale_pointers@@@Z 000000018004a548     libucrt:output.obj
 0004:00001560       $pdata$_free_base          000000018004a560     libucrt:free_base.obj
 0004:0000156c       $pdata$_malloc_base        000000018004a56c     libucrt:malloc_base.obj
 0004:00001578       $pdata$__acrt_initialize_fma3 000000018004a578     libucrt:fma3_available.obj
 0004:00001590       $pdata$_sincos_special     000000018004a590     libucrt:sincos_special.obj
 0004:0000159c       $pdata$_sincosf_special    000000018004a59c     libucrt:sincos_special.obj
 0004:000015a8       $pdata$_powf_special       000000018004a5a8     libucrt:pow_special.obj
 0004:000015b4       $pdata$_pow_special        000000018004a5b4     libucrt:pow_special.obj
 0004:000015c0       $pdata$_clrfp              000000018004a5c0     libucrt:fpctrl.obj
 0004:000015cc       $pdata$_ctrlfp             000000018004a5cc     libucrt:fpctrl.obj
 0004:000015d8       $pdata$_ctrlfp$filt$0      000000018004a5d8     libucrt:fpctrl.obj
 0004:000015e4       $pdata$_statfp             000000018004a5e4     libucrt:fpctrl.obj
 0004:000015f0       $pdata$_set_statfp         000000018004a5f0     libucrt:fpctrl.obj
 0004:000015fc       $pdata$_call_matherr       000000018004a5fc     libucrt:libm_error.obj
 0004:00001608       $pdata$_exception_enabled  000000018004a608     libucrt:libm_error.obj
 0004:00001614       $pdata$_handle_errorf      000000018004a614     libucrt:libm_error.obj
 0004:00001620       $pdata$_handle_error       000000018004a620     libucrt:libm_error.obj
 0004:0000162c       $pdata$_exp_special        000000018004a62c     libucrt:exp_special.obj
 0004:00001674       $pdata$__acrt_initialize_ptd 000000018004a674     libucrt:per_thread_data.obj
 0004:00001680       $pdata$__acrt_uninitialize_ptd 000000018004a680     libucrt:per_thread_data.obj
 0004:0000168c       $pdata$__acrt_getptd       000000018004a68c     libucrt:per_thread_data.obj
 0004:00001698       $pdata$__acrt_getptd_head  000000018004a698     libucrt:per_thread_data.obj
 0004:000016a4       $pdata$__acrt_getptd_noexit 000000018004a6a4     libucrt:per_thread_data.obj
 0004:000016b0       $pdata$__acrt_freeptd      000000018004a6b0     libucrt:per_thread_data.obj
 0004:000016bc       $pdata$?destroy_fls@@YAXPEAX@Z 000000018004a6bc     libucrt:per_thread_data.obj
 0004:000016c8       $pdata$?replace_current_thread_locale_nolock@@YAXQEAU__acrt_ptd@@QEAU__crt_locale_data@@@Z 000000018004a6c8     libucrt:per_thread_data.obj
 0004:000016d4       $pdata$?construct_ptd_array@@YAXQEAU__acrt_ptd@@@Z 000000018004a6d4     libucrt:per_thread_data.obj
 0004:000016e0       $pdata$?destroy_ptd_array@@YAXQEAU__acrt_ptd@@@Z 000000018004a6e0     libucrt:per_thread_data.obj
 0004:000016ec       $pdata$??$?RV<lambda_0ae27a3a962d80f24befdcbee591983d>@@AEAV<lambda_8d0ee55de4b1038c4002e0adecdf1839>@@V<lambda_dc504788e8f1664fe9b84e20bfb512f2>@@@?$__crt_seh_guarded_call@X@@QEAAX$$QEAV<lambda_0ae27a3a962d80f24befdcbee591983d>@@AEAV<lambda_8d0ee55de4b1038c4002e0adecdf1839>@@$$QEAV<lambda_dc504788e8f1664fe9b84e20bfb512f2>@@@Z 000000018004a6ec     libucrt:per_thread_data.obj
 0004:000016f8       $pdata$??$?RV<lambda_aa87e3671a710a21b5dc78c0bdf72e11>@@AEAV<lambda_92619d2358a28f41a33ba319515a20b9>@@V<lambda_6992ecaafeb10aed2b74cb1fae11a551>@@@?$__crt_seh_guarded_call@X@@QEAAX$$QEAV<lambda_aa87e3671a710a21b5dc78c0bdf72e11>@@AEAV<lambda_92619d2358a28f41a33ba319515a20b9>@@$$QEAV<lambda_6992ecaafeb10aed2b74cb1fae11a551>@@@Z 000000018004a6f8     libucrt:per_thread_data.obj
 0004:00001704       $pdata$??$?RV<lambda_f2e299630e499de9f9a165e60fcd3db5>@@AEAV<lambda_2ae9d31cdba2644fcbeaf08da7c24588>@@V<lambda_40d01ff24d0e7b3814fdbdcee8eab3c7>@@@?$__crt_seh_guarded_call@X@@QEAAX$$QEAV<lambda_f2e299630e499de9f9a165e60fcd3db5>@@AEAV<lambda_2ae9d31cdba2644fcbeaf08da7c24588>@@$$QEAV<lambda_40d01ff24d0e7b3814fdbdcee8eab3c7>@@@Z 000000018004a704     libucrt:per_thread_data.obj
 0004:00001710       $pdata$??$?RV<lambda_2d41944a1d46af3157314b8a01080d33>@@AEAV<lambda_8f455de75cd7d7f24b4096f044d8b9e6>@@V<lambda_aa500f224e6afead328df44964fe2772>@@@?$__crt_seh_guarded_call@X@@QEAAX$$QEAV<lambda_2d41944a1d46af3157314b8a01080d33>@@AEAV<lambda_8f455de75cd7d7f24b4096f044d8b9e6>@@$$QEAV<lambda_aa500f224e6afead328df44964fe2772>@@@Z 000000018004a710     libucrt:per_thread_data.obj
 0004:0000171c       $pdata$__acrt_initialize_locks 000000018004a71c     libucrt:locks.obj
 0004:00001728       $pdata$__acrt_uninitialize_locks 000000018004a728     libucrt:locks.obj
 0004:00001734       $pdata$__acrt_get_process_end_policy 000000018004a734     libucrt:win_policies.obj
 0004:00001740       $pdata$_invalid_parameter_noinfo 000000018004a740     libucrt:invalid_parameter.obj
 0004:0000174c       $pdata$_invoke_watson      000000018004a74c     libucrt:invalid_parameter.obj
 0004:00001758       $pdata$__acrt_call_reportfault 000000018004a758     libucrt:invalid_parameter.obj
 0004:00001764       $pdata$_invalid_parameter  000000018004a764     libucrt:invalid_parameter.obj
 0004:00001770       $pdata$_errno              000000018004a770     libucrt:errno.obj
 0004:0000177c       $pdata$__doserrno          000000018004a77c     libucrt:errno.obj
 0004:00001788       $pdata$__acrt_errno_map_os_error 000000018004a788     libucrt:errno.obj
 0004:00001794       $pdata$_calloc_base        000000018004a794     libucrt:calloc_base.obj
 0004:000017a0       $pdata$??$common_expand_argv_wildcards@D@@YAHQEAPEADQEAPEAPEAD@Z 000000018004a7a0     libucrt:argv_wildcards.obj
 0004:000017ac       $pdata$??$copy_and_add_argument_to_buffer@D@@YAHQEBD0_KAEAV?$argument_list@D@?A0x5f5c8891@@@Z 000000018004a7ac     libucrt:argv_wildcards.obj
 0004:000017b8       $pdata$??$expand_argument_wildcards@D@@YAHQEAD0AEAV?$argument_list@D@?A0x5f5c8891@@@Z 000000018004a7b8     libucrt:argv_wildcards.obj
 0004:000017c4       $pdata$__acrt_update_thread_multibyte_data 000000018004a7c4     libucrt:mbctype.obj
 0004:000017d0       $pdata$__acrt_initialize_multibyte 000000018004a7d0     libucrt:mbctype.obj
 0004:000017dc       $pdata$_setmbcp_nolock     000000018004a7dc     libucrt:mbctype.obj
 0004:000017e8       $pdata$?getSystemCP@@YAHH@Z 000000018004a7e8     libucrt:mbctype.obj
 0004:000017f4       $pdata$?setSBCS@@YAXPEAU__crt_multibyte_data@@@Z 000000018004a7f4     libucrt:mbctype.obj
 0004:00001800       $pdata$?update_thread_multibyte_data_internal@@YAPEAU__crt_multibyte_data@@QEAU__acrt_ptd@@QEAPEAU1@@Z 000000018004a800     libucrt:mbctype.obj
 0004:0000180c       $pdata$?fin$0@?0??update_thread_multibyte_data_internal@@YAPEAU__crt_multibyte_data@@QEAU__acrt_ptd@@QEAPEAU1@@Z@4HA 000000018004a80c     libucrt:mbctype.obj
 0004:00001818       $pdata$?setmbcp_internal@@YAHH_NQEAU__acrt_ptd@@QEAPEAU__crt_multibyte_data@@@Z 000000018004a818     libucrt:mbctype.obj
 0004:00001824       $pdata$?setSBUpLow@@YAXPEAU__crt_multibyte_data@@@Z 000000018004a824     libucrt:mbctype.obj
 0004:00001830       $pdata$??$?RV<lambda_efdfa57d1f175319df784efa44bb7b81>@@AEAV<lambda_5f0a4c1567f8adc6734073e5d1e1b35c>@@V<lambda_2e8a7d3640ea6ccb4c2413664c2db6fd>@@@?$__crt_seh_guarded_call@X@@QEAAX$$QEAV<lambda_efdfa57d1f175319df784efa44bb7b81>@@AEAV<lambda_5f0a4c1567f8adc6734073e5d1e1b35c>@@$$QEAV<lambda_2e8a7d3640ea6ccb4c2413664c2db6fd>@@@Z 000000018004a830     libucrt:mbctype.obj
 0004:0000183c       $pdata$?x_ismbbtype_l@@YAHPEAU__crt_locale_pointers@@IHH@Z 000000018004a83c     libucrt:ismbbyte.obj
 0004:00001848       $pdata$__acrt_initialize_command_line 000000018004a848     libucrt:argv_data.obj
 0004:00001854       $pdata$__dcrt_get_narrow_environment_from_os 000000018004a854     libucrt:get_environment_from_os.obj
 0004:00001860       $pdata$_recalloc_base      000000018004a860     libucrt:recalloc.obj
 0004:0000186c       $pdata$__acrt_initialize_winapi_thunks 000000018004a86c     libucrt:winapi_thunks.obj
 0004:00001878       $pdata$__acrt_uninitialize_winapi_thunks 000000018004a878     libucrt:winapi_thunks.obj
 0004:00001884       $pdata$__acrt_FlsAlloc     000000018004a884     libucrt:winapi_thunks.obj
 0004:00001890       $pdata$__acrt_FlsFree      000000018004a890     libucrt:winapi_thunks.obj
 0004:0000189c       $pdata$__acrt_FlsGetValue  000000018004a89c     libucrt:winapi_thunks.obj
 0004:000018a8       $pdata$__acrt_FlsSetValue  000000018004a8a8     libucrt:winapi_thunks.obj
 0004:000018b4       $pdata$__acrt_InitializeCriticalSectionEx 000000018004a8b4     libucrt:winapi_thunks.obj
 0004:000018c0       $pdata$__acrt_LCMapStringEx 000000018004a8c0     libucrt:winapi_thunks.obj
 0004:000018cc       $pdata$__acrt_LocaleNameToLCID 000000018004a8cc     libucrt:winapi_thunks.obj
 0004:000018d8       $pdata$__acrt_AppPolicyGetProcessTerminationMethodInternal 000000018004a8d8     libucrt:winapi_thunks.obj
 0004:000018e4       $pdata$?try_get_function@@YAPEAXW4function_id@?A0x391cf84c@@QEBDQEBW4module_id@2@2@Z 000000018004a8e4     libucrt:winapi_thunks.obj
 0004:000018f0       $pdata$__acrt_initialize_heap 000000018004a8f0     libucrt:heap_handle.obj
 0004:000018fc       $pdata$__acrt_initialize_lowio 000000018004a8fc     libucrt:ioinit.obj
 0004:00001908       $pdata$__acrt_initialize_lowio$fin$0 000000018004a908     libucrt:ioinit.obj
 0004:00001908       $pdata$__acrt_lowio_ensure_fh_exists$fin$0 000000018004a908     libucrt:osfinfo.obj
 0004:00001914       $pdata$__acrt_uninitialize_lowio 000000018004a914     libucrt:ioinit.obj
 0004:00001920       $pdata$?initialize_inherited_file_handles_nolock@@YAXXZ 000000018004a920     libucrt:ioinit.obj
 0004:0000192c       $pdata$?initialize_stdio_handles_nolock@@YAXXZ 000000018004a92c     libucrt:ioinit.obj
 0004:00001938       $pdata$__acrt_execute_initializers 000000018004a938     libucrt:shared_initialization.obj
 0004:00001944       $pdata$__acrt_execute_uninitializers 000000018004a944     libucrt:shared_initialization.obj
 0004:00001950       $pdata$_callnewh           000000018004a950     libucrt:new_handler.obj
 0004:0000195c       $pdata$_query_new_handler  000000018004a95c     libucrt:new_handler.obj
 0004:00001968       $pdata$_query_new_handler$fin$0 000000018004a968     libucrt:new_handler.obj
 0004:00001974       $pdata$__acrt_get_sigabrt_handler 000000018004a974     libucrt:signal.obj
 0004:00001980       $pdata$raise               000000018004a980     libucrt:signal.obj
 0004:0000198c       $pdata$raise$fin$0         000000018004a98c     libucrt:signal.obj
 0004:00001998       $pdata$??$?RV<lambda_450d765d439847d4c735a33c368b5fc0>@@AEAV<lambda_44731a7d0e6d81c3e6aa82d741081786>@@V<lambda_601a2a7da3b7a96e9554ac7215c4b07c>@@@?$__crt_seh_guarded_call@P6AXH@Z@@QEAAP6AXH@Z$$QEAV<lambda_450d765d439847d4c735a33c368b5fc0>@@AEAV<lambda_44731a7d0e6d81c3e6aa82d741081786>@@$$QEAV<lambda_601a2a7da3b7a96e9554ac7215c4b07c>@@@Z 000000018004a998     libucrt:signal.obj
 0004:000019a4       $pdata$_fflush_nolock      000000018004a9a4     libucrt:fflush.obj
 0004:000019b0       $pdata$__acrt_stdio_flush_nolock 000000018004a9b0     libucrt:fflush.obj
 0004:000019bc       $pdata$?common_flush_all@@YAH_N@Z 000000018004a9bc     libucrt:fflush.obj
 0004:000019c8       $pdata$??$?RV<lambda_842d9ff0dc9ef11c61343bbaebe7f885>@@AEAV<lambda_c5860995281e5c4ce005b3de8f5874ee>@@V<lambda_d90129c13df834fdcbf8d2b88dafcf2d>@@@?$__crt_seh_guarded_call@X@@QEAAX$$QEAV<lambda_842d9ff0dc9ef11c61343bbaebe7f885>@@AEAV<lambda_c5860995281e5c4ce005b3de8f5874ee>@@$$QEAV<lambda_d90129c13df834fdcbf8d2b88dafcf2d>@@@Z 000000018004a9c8     libucrt:fflush.obj
 0004:000019d4       $pdata$?fin$0@?0???$?RV<lambda_842d9ff0dc9ef11c61343bbaebe7f885>@@AEAV<lambda_c5860995281e5c4ce005b3de8f5874ee>@@V<lambda_d90129c13df834fdcbf8d2b88dafcf2d>@@@?$__crt_seh_guarded_call@X@@QEAAX$$QEAV<lambda_842d9ff0dc9ef11c61343bbaebe7f885>@@AEAV<lambda_c5860995281e5c4ce005b3de8f5874ee>@@$$QEAV<lambda_d90129c13df834fdcbf8d2b88dafcf2d>@@@Z@4HA 000000018004a9d4     libucrt:fflush.obj
 0004:000019e0       $pdata$??$?RV<lambda_886d6c58226a84441f68b9f2b8217b83>@@AEAV<lambda_ab61a845afdef5b7c387490eaf3616ee>@@V<lambda_f7f22ab5edc0698d5f6905b0d3f44752>@@@?$__crt_seh_guarded_call@X@@QEAAX$$QEAV<lambda_886d6c58226a84441f68b9f2b8217b83>@@AEAV<lambda_ab61a845afdef5b7c387490eaf3616ee>@@$$QEAV<lambda_f7f22ab5edc0698d5f6905b0d3f44752>@@@Z 000000018004a9e0     libucrt:fflush.obj
 0004:000019ec       $pdata$?fin$0@?0???$?RV<lambda_886d6c58226a84441f68b9f2b8217b83>@@AEAV<lambda_ab61a845afdef5b7c387490eaf3616ee>@@V<lambda_f7f22ab5edc0698d5f6905b0d3f44752>@@@?$__crt_seh_guarded_call@X@@QEAAX$$QEAV<lambda_886d6c58226a84441f68b9f2b8217b83>@@AEAV<lambda_ab61a845afdef5b7c387490eaf3616ee>@@$$QEAV<lambda_f7f22ab5edc0698d5f6905b0d3f44752>@@@Z@4HA 000000018004a9ec     libucrt:fflush.obj
 0004:000019f8       $pdata$__acrt_initialize_stdio 000000018004a9f8     libucrt:_file.obj
 0004:00001a04       $pdata$__acrt_uninitialize_stdio 000000018004aa04     libucrt:_file.obj
 0004:00001a10       $pdata$_mbtowc_l           000000018004aa10     libucrt:mbtowc.obj
 0004:00001a1c       $pdata$__acrt_update_locale_info 000000018004aa1c     libucrt:locale_update.obj
 0004:00001a28       $pdata$__acrt_update_multibyte_info 000000018004aa28     libucrt:locale_update.obj
 0004:00001a34       $pdata$_fileno             000000018004aa34     libucrt:fileno.obj
 0004:00001a40       $pdata$__acrt_uninitialize_locale 000000018004aa40     libucrt:wsetlocale.obj
 0004:00001a4c       $pdata$??$?RV<lambda_410d79af7f07d98d83a3f525b3859a53>@@AEAV<lambda_3e16ef9562a7dcce91392c22ab16ea36>@@V<lambda_38119f0e861e05405d8a144b9b982f0a>@@@?$__crt_seh_guarded_call@X@@QEAAX$$QEAV<lambda_410d79af7f07d98d83a3f525b3859a53>@@AEAV<lambda_3e16ef9562a7dcce91392c22ab16ea36>@@$$QEAV<lambda_38119f0e861e05405d8a144b9b982f0a>@@@Z 000000018004aa4c     libucrt:wsetlocale.obj
 0004:00001a58       $pdata$?fin$0@?0???$?RV<lambda_410d79af7f07d98d83a3f525b3859a53>@@AEAV<lambda_3e16ef9562a7dcce91392c22ab16ea36>@@V<lambda_38119f0e861e05405d8a144b9b982f0a>@@@?$__crt_seh_guarded_call@X@@QEAAX$$QEAV<lambda_410d79af7f07d98d83a3f525b3859a53>@@AEAV<lambda_3e16ef9562a7dcce91392c22ab16ea36>@@$$QEAV<lambda_38119f0e861e05405d8a144b9b982f0a>@@@Z@4HA 000000018004aa58     libucrt:wsetlocale.obj
 0004:00001a64       $pdata$__pctype_func       000000018004aa64     libucrt:ctype.obj
 0004:00001a7c       $pdata$_set_errno_from_matherr 000000018004aa7c     libucrt:fpexcept.obj
 0004:00001a88       $pdata$_raise_excf         000000018004aa88     libucrt:fpexcept.obj
 0004:00001a94       $pdata$_raise_exc          000000018004aa94     libucrt:fpexcept.obj
 0004:00001aa0       $pdata$_raise_exc_ex       000000018004aaa0     libucrt:fpexcept.obj
 0004:00001aac       $pdata$__acrt_release_locale_ref 000000018004aaac     libucrt:locale_refcounting.obj
 0004:00001ab8       $pdata$__acrt_free_locale  000000018004aab8     libucrt:locale_refcounting.obj
 0004:00001ac4       $pdata$__acrt_locale_free_lc_time_if_unreferenced 000000018004aac4     libucrt:locale_refcounting.obj
 0004:00001ad0       $pdata$__acrt_update_thread_locale_data 000000018004aad0     libucrt:locale_refcounting.obj
 0004:00001adc       $pdata$__acrt_update_thread_locale_data$fin$0 000000018004aadc     libucrt:locale_refcounting.obj
 0004:00001ae8       $pdata$_updatetlocinfoEx_nolock 000000018004aae8     libucrt:locale_refcounting.obj
 0004:00001af4       $pdata$qsort               000000018004aaf4     libucrt:qsort.obj
 0004:00001b00       $pdata$4$qsort             000000018004ab00     libucrt:qsort.obj
 0004:00001b0c       $pdata$5$qsort             000000018004ab0c     libucrt:qsort.obj
 0004:00001b18       $pdata$strncpy_s           000000018004ab18     libucrt:strncpy_s.obj
 0004:00001b24       $pdata$strpbrk             000000018004ab24     libucrt:strpbrk.obj
 0004:00001b30       $pdata$fallbackMethod      000000018004ab30     libucrt:strpbrk.obj
 0004:00001b3c       $pdata$_mbsdec_l           000000018004ab3c     libucrt:mbsdec.obj
 0004:00001b48       $pdata$__acrt_GetStringTypeA 000000018004ab48     libucrt:getstringtypea.obj
 0004:00001b54       $pdata$__acrt_LCMapStringA 000000018004ab54     libucrt:lcmapstringa.obj
 0004:00001b60       $pdata$?__acrt_LCMapStringA_stat@@YAHPEAU__crt_locale_pointers@@PEB_WKPEBDHPEADHHH@Z 000000018004ab60     libucrt:lcmapstringa.obj
 0004:00001b6c       $pdata$?initialize_multibyte@@YAHXZ 000000018004ab6c     libucrt:multibyte_initializer.obj
 0004:00001b78       $pdata$_msize_base         000000018004ab78     libucrt:msize.obj
 0004:00001b84       $pdata$_realloc_base       000000018004ab84     libucrt:realloc_base.obj
 0004:00001b90       $pdata$__acrt_DownlevelLocaleNameToLCID 000000018004ab90     libucrt:lcidtoname_downlevel.obj
 0004:00001b9c       $pdata$?GetTableIndexFromLocaleName@@YAHPEB_W@Z 000000018004ab9c     libucrt:lcidtoname_downlevel.obj
 0004:00001ba8       $pdata$_get_osfhandle      000000018004aba8     libucrt:osfinfo.obj
 0004:00001bb4       $pdata$_free_osfhnd        000000018004abb4     libucrt:osfinfo.obj
 0004:00001bc0       $pdata$__acrt_lowio_create_handle_array 000000018004abc0     libucrt:osfinfo.obj
 0004:00001bcc       $pdata$__acrt_lowio_destroy_handle_array 000000018004abcc     libucrt:osfinfo.obj
 0004:00001bd8       $pdata$__acrt_lowio_ensure_fh_exists 000000018004abd8     libucrt:osfinfo.obj
 0004:00001be4       $pdata$_commit             000000018004abe4     libucrt:commit.obj
 0004:00001bf0       $pdata$??$?RV<lambda_a37b2b86f63e897a80ea819b0eb08c01>@@AEAV<lambda_38ce7e780aa69e748d6df282ebc68efe>@@V<lambda_99fb1378e971ab6e7edea83e3a7a83a2>@@@?$__crt_seh_guarded_call@H@@QEAAH$$QEAV<lambda_a37b2b86f63e897a80ea819b0eb08c01>@@AEAV<lambda_38ce7e780aa69e748d6df282ebc68efe>@@$$QEAV<lambda_99fb1378e971ab6e7edea83e3a7a83a2>@@@Z 000000018004abf0     libucrt:commit.obj
 0004:00001bfc       $pdata$?fin$0@?0???$?RV<lambda_751a882b2c74d4b022dec766aa51a29a>@@AEAV<lambda_628dfdc04ba53c8bfc02c9951375f3f5>@@V<lambda_f6c7be5f7998530c34de24c7437d6b54>@@@?$__crt_seh_guarded_call@H@@QEAAH$$QEAV<lambda_751a882b2c74d4b022dec766aa51a29a>@@AEAV<lambda_628dfdc04ba53c8bfc02c9951375f3f5>@@$$QEAV<lambda_f6c7be5f7998530c34de24c7437d6b54>@@@Z@4HA 000000018004abfc     libucrt:close.obj
 0004:00001bfc       $pdata$?fin$0@?0???$?RV<lambda_a37b2b86f63e897a80ea819b0eb08c01>@@AEAV<lambda_38ce7e780aa69e748d6df282ebc68efe>@@V<lambda_99fb1378e971ab6e7edea83e3a7a83a2>@@@?$__crt_seh_guarded_call@H@@QEAAH$$QEAV<lambda_a37b2b86f63e897a80ea819b0eb08c01>@@AEAV<lambda_38ce7e780aa69e748d6df282ebc68efe>@@$$QEAV<lambda_99fb1378e971ab6e7edea83e3a7a83a2>@@@Z@4HA 000000018004abfc     libucrt:commit.obj
 0004:00001c08       $pdata$_write              000000018004ac08     libucrt:write.obj
 0004:00001c14       $pdata$_write$fin$0        000000018004ac14     libucrt:write.obj
 0004:00001c20       $pdata$_write_nolock       000000018004ac20     libucrt:write.obj
 0004:00001c2c       $pdata$?write_double_translated_ansi_nolock@@YA?AUwrite_result@?A0x17268360@@HQEBDI@Z 000000018004ac2c     libucrt:write.obj
 0004:00001c38       $pdata$?write_text_ansi_nolock@@YA?AUwrite_result@?A0x17268360@@HQEBDI@Z 000000018004ac38     libucrt:write.obj
 0004:00001c44       $pdata$?write_text_utf16le_nolock@@YA?AUwrite_result@?A0x17268360@@HQEBDI@Z 000000018004ac44     libucrt:write.obj
 0004:00001c50       $pdata$?write_text_utf8_nolock@@YA?AUwrite_result@?A0x17268360@@HQEBDI@Z 000000018004ac50     libucrt:write.obj
 0004:00001c5c       $pdata$_fcloseall          000000018004ac5c     libucrt:closeall.obj
 0004:00001c68       $pdata$_fcloseall$fin$0    000000018004ac68     libucrt:closeall.obj
 0004:00001c74       $pdata$__acrt_stdio_free_buffer_nolock 000000018004ac74     libucrt:_freebuf.obj
 0004:00001c80       $pdata$_isatty             000000018004ac80     libucrt:isatty.obj
 0004:00001c8c       $pdata$_isleadbyte_l       000000018004ac8c     libucrt:_wctype.obj
 0004:00001c98       $pdata$__acrt_locale_free_monetary 000000018004ac98     libucrt:initmon.obj
 0004:00001ca4       $pdata$__acrt_locale_free_numeric 000000018004aca4     libucrt:initnum.obj
 0004:00001cb0       $pdata$__acrt_locale_free_time 000000018004acb0     libucrt:inittime.obj
 0004:00001cbc       $pdata$?free_crt_array_internal@@YAXQEAPEBX_K@Z 000000018004acbc     libucrt:inittime.obj
 0004:00001cc8       $pdata$??$common_lseek_nolock@_J@@YA_JH_JH@Z 000000018004acc8     libucrt:lseek.obj
 0004:00001cd4       $pdata$_putwch_nolock      000000018004acd4     libucrt:putwch.obj
 0004:00001ce0       $pdata$fclose              000000018004ace0     libucrt:fclose.obj
 0004:00001cec       $pdata$fclose$fin$0        000000018004acec     libucrt:fclose.obj
 0004:00001cf8       $pdata$_fclose_nolock      000000018004acf8     libucrt:fclose.obj
 0004:00001d10       $pdata$__dcrt_lowio_ensure_console_output_initialized 000000018004ad10     libucrt:initcon.obj
 0004:00001d1c       $pdata$__dcrt_write_console_w 000000018004ad1c     libucrt:initcon.obj
 0004:00001d28       $pdata$__dcrt_terminate_console_output 000000018004ad28     libucrt:initcon.obj
 0004:00001d34       $pdata$_close              000000018004ad34     libucrt:close.obj
 0004:00001d40       $pdata$_close_nolock       000000018004ad40     libucrt:close.obj
 0004:00001d4c       $pdata$??$?RV<lambda_751a882b2c74d4b022dec766aa51a29a>@@AEAV<lambda_628dfdc04ba53c8bfc02c9951375f3f5>@@V<lambda_f6c7be5f7998530c34de24c7437d6b54>@@@?$__crt_seh_guarded_call@H@@QEAAH$$QEAV<lambda_751a882b2c74d4b022dec766aa51a29a>@@AEAV<lambda_628dfdc04ba53c8bfc02c9951375f3f5>@@$$QEAV<lambda_f6c7be5f7998530c34de24c7437d6b54>@@@Z 000000018004ad4c     libucrt:close.obj
 0004:00001d58       $pdata$_log_special_common 000000018004ad58     libucrt:log_special.obj
 0004:00001d64       $pdata$_log10_special      000000018004ad64     libucrt:log_special.obj
 0004:00001d70       $pdata$_IsNonwritableInCurrentImage 000000018004ad70     LIBCMT:pesect.obj
 0004:00001d7c       $pdata$_IsNonwritableInCurrentImage$filt$0 000000018004ad7c     LIBCMT:pesect.obj
 0004:00001d88       $pdata$__GSHandlerCheckCommon 000000018004ad88     LIBCMT:gshandler.obj
 0004:00001d94       $pdata$__GSHandlerCheck    000000018004ad94     LIBCMT:gshandler.obj
 0004:00001dac       $pdata$__report_securityfailure 000000018004adac     LIBCMT:gs_report.obj
 0004:00001db8       $pdata$__report_rangecheckfailure 000000018004adb8     LIBCMT:gs_report.obj
 0004:00001dc4       $pdata$__report_gsfailure  000000018004adc4     LIBCMT:gs_report.obj
 0004:00001dd0       $pdata$capture_current_context 000000018004add0     LIBCMT:gs_report.obj
 0004:00001ddc       $pdata$capture_previous_context 000000018004addc     LIBCMT:gs_report.obj
 0004:00001de8       $pdata$__raise_securityfailure 000000018004ade8     LIBCMT:gs_report.obj
 0005:00000000       MsetTab                    000000018004b000     libvcruntime:memset.obj
 0005:00000050       MoveSmall                  000000018004b050     libvcruntime:memcpy.obj
